Certificate:
    Data:
        Version: 3 (0x2)
        Serial Number: 1 (0x1)
    Signature Algorithm: sha1WithRSAEncryption
        Issuer: C=GB, O=Host4ge, CN=Host4ge CA/name=Host4ge CA
        Validity
            Not Before: Aug  9 22:08:01 2012 GMT
            Not After : Aug  7 22:08:01 2022 GMT
        Subject: C=GB, O=Host4ge, CN=vm15/emailAddress=admin@host4ge.com
        Subject Public Key Info:
            Public Key Algorithm: rsaEncryption
                Public-Key: (4096 bit)
                Modulus:
                    00:e1:88:32:13:28:cd:a9:8f:88:f9:93:09:c3:b1:
                    d2:f1:bd:a6:06:0b:89:f7:7b:76:bd:0d:49:8e:6c:
                    6b:29:f9:e4:ea:e8:44:59:8b:aa:56:bc:98:a4:84:
                    91:d3:61:7f:50:45:6f:c9:50:63:16:9b:dd:24:0f:
                    df:95:03:10:de:01:70:dc:21:ac:f8:69:ef:c9:67:
                    0c:ec:88:95:90:e9:e5:9d:a2:a0:bb:33:66:31:30:
                    6d:5e:4b:e5:49:1f:1a:1f:2f:92:6f:6f:1c:e0:ce:
                    36:6a:9e:36:13:76:67:bc:6b:a6:22:e9:15:08:8c:
                    1c:fa:75:44:d5:61:5b:01:c2:3d:5c:e1:f9:d7:1f:
                    84:f0:a8:93:75:19:99:f8:22:5d:6e:53:ff:c9:70:
                    21:69:4e:db:17:20:64:d5:43:5d:ff:94:33:fb:de:
                    cb:21:91:8c:c1:85:ee:f7:bc:d2:64:14:ed:a2:96:
                    92:24:ed:9c:59:33:b4:48:d8:9f:b0:43:81:b3:c9:
                    c6:f9:bc:41:de:02:65:b8:98:03:b4:8d:78:18:b4:
                    0d:23:aa:9a:80:d6:e7:59:f1:21:5c:c8:80:7d:0b:
                    f7:c7:d3:c1:8d:26:ca:ce:39:93:32:02:91:42:96:
                    b4:61:8d:38:cc:d6:d8:62:fd:34:89:76:e9:0f:e3:
                    d9:42:28:24:a1:9e:b9:da:6e:02:0a:b4:dc:b6:16:
                    11:6a:7e:70:b9:fe:ce:e7:ef:ad:78:d8:1b:99:d7:
                    ee:6e:61:b7:d6:a7:42:4f:66:ce:75:2e:98:bd:5c:
                    19:9e:4a:0c:c7:07:8b:0c:13:44:5c:7c:55:91:f3:
                    2c:04:9b:b4:da:7d:32:c8:aa:e9:31:ca:eb:c5:f1:
                    cf:c1:0a:ba:f9:54:06:60:69:5a:84:97:49:ac:e0:
                    88:ca:3d:75:a6:f5:06:77:b2:a9:4b:16:95:4f:e7:
                    20:c7:61:67:1e:36:48:6c:46:40:a8:2d:98:35:70:
                    eb:c5:84:43:a8:53:04:a5:0c:cf:6a:1e:94:99:dd:
                    c2:db:b7:56:8e:66:f7:70:23:4e:71:7f:1f:29:ff:
                    13:55:2b:b8:c3:63:1f:2c:ed:ae:cf:ce:39:93:10:
                    01:13:37:ea:b8:ad:d5:00:dd:24:87:3b:9b:1c:af:
                    73:a5:8a:2a:9a:f4:03:50:24:ff:b6:98:e3:db:24:
                    c6:82:0a:f8:22:f7:23:ed:72:c3:b9:1c:21:63:25:
                    d7:b2:19:17:47:f8:60:f6:44:4c:d4:4c:73:d0:ed:
                    b4:51:ad:39:29:ea:25:72:d3:04:39:52:e4:75:70:
                    a2:d7:2d:f4:b6:7b:1d:66:b3:b9:18:28:74:bc:94:
                    66:06:55
                Exponent: 65537 (0x10001)
        X509v3 extensions:
            X509v3 Basic Constraints: 
                CA:FALSE
            Netscape Cert Type: 
                SSL Server
            Netscape Comment: 
                Easy-RSA Generated Server Certificate
            X509v3 Subject Key Identifier: 
                EC:83:3B:E0:BA:C0:A5:CA:ED:9B:79:4B:F8:46:FE:AE:F5:2F:E0:4E
            X509v3 Authority Key Identifier: 
                keyid:20:C4:E4:A1:2D:B7:EE:9B:E2:C5:C8:EF:0C:43:AD:AA:D7:DF:7A:6F
                DirName:/C=GB/O=Host4ge/CN=Host4ge CA/name=Host4ge CA
                serial:81:7E:9D:E0:4B:B2:EF:AA

            X509v3 Extended Key Usage: 
                TLS Web Server Authentication
            X509v3 Key Usage: 
                Digital Signature, Key Encipherment
    Signature Algorithm: sha1WithRSAEncryption
         ba:24:f8:ec:5b:50:e6:de:3a:c5:5f:e8:5a:63:45:6f:00:d6:
         db:d9:a1:41:41:8c:2c:9a:e0:df:63:ad:1a:e1:17:a7:76:71:
         a6:96:f4:d4:44:1d:99:db:5c:5e:e1:9f:22:b0:f9:f4:89:77:
         e9:e1:85:3d:66:94:e0:28:5d:b1:d2:85:68:78:f2:ac:22:90:
         1b:cd:c4:79:d4:04:b5:c1:08:2c:5a:fa:d2:c1:11:03:85:64:
         a5:97:fb:5b:98:49:87:24:8b:a5:b2:90:c6:70:fe:be:42:ff:
         14:29:90:fa:ff:ed:a4:7e:3d:e9:57:d8:71:16:7c:7d:97:e3:
         8b:5e:98:a8:77:40:a1:59:eb:07:83:cf:d6:96:bb:de:b1:e6:
         fd:67:16:23:ca:eb:d6:65:41:3a:02:19:44:72:2d:3c:e3:d5:
         ee:dd:37:a6:b1:6a:ae:f6:a1:54:78:63:80:b0:b8:c3:39:36:
         27:66:64:6b:88:a0:9f:c0:1d:87:76:02:d1:e4:64:83:f6:ad:
         85:a6:b1:97:51:53:4e:0b:2b:71:c9:62:ce:7d:db:10:d5:eb:
         d8:d7:4b:2a:33:da:91:df:d5:ce:0c:e3:54:26:3b:89:5c:a5:
         7f:6d:04:e8:4f:b8:20:8c:5b:85:c1:53:63:db:5c:87:78:a2:
         0a:72:08:88:cc:9b:b4:22:42:4d:eb:e1:a0:40:54:fd:51:c3:
         f8:f2:ff:06:a9:df:49:ef:51:78:81:2d:2e:fa:0b:c6:26:43:
         f5:b6:50:7f:1f:30:8b:38:34:8f:30:44:22:b3:99:de:4d:81:
         47:d7:9a:0c:a6:33:1f:fa:9c:e6:5c:e4:4c:66:83:86:db:e9:
         32:e7:40:aa:69:bd:4b:6c:df:8e:ea:ac:1d:d5:73:47:89:2c:
         16:01:27:3c:21:19:8e:ca:c5:b3:1e:c4:2c:15:fc:35:63:e0:
         6f:e9:8a:cf:dc:6d:bf:74:38:27:c6:1a:1f:ef:6c:f1:a9:b4:
         99:ba:9b:26:70:a3:8a:3b:3d:8f:95:95:db:b6:98:5f:a6:fa:
         5d:fd:bd:76:82:67:45:d4:0b:f9:77:20:12:07:41:71:aa:1b:
         2c:7a:4e:1a:79:0a:d3:bf:54:68:a6:04:85:91:5b:76:ca:e1:
         b1:03:c8:e4:a3:a4:f4:36:ab:20:92:21:27:e6:52:1f:73:93:
         f7:e7:12:6a:68:a6:65:b2:f3:0a:f8:a6:7b:df:0e:cc:70:9d:
         b6:d9:64:fe:21:05:fc:ff:1a:c0:c9:ba:a2:75:32:7d:d0:4b:
         fe:c4:b3:98:6b:41:ba:85:a8:1a:70:9c:ee:2c:6f:79:5d:94:
         68:5a:01:f7:bd:8c:43:be
-----BEGIN CERTIFICATE-----
MIIGKjCCBBKgAwIBAgIBATANBgkqhkiG9w0BAQUFADBJMQswCQYDVQQGEwJHQjEQ
MA4GA1UEChMHSG9zdDRnZTETMBEGA1UEAxMKSG9zdDRnZSBDQTETMBEGA1UEKRMK
SG9zdDRnZSBDQTAeFw0xMjA4MDkyMjA4MDFaFw0yMjA4MDcyMjA4MDFaMFAxCzAJ
BgNVBAYTAkdCMRAwDgYDVQQKEwdIb3N0NGdlMQ0wCwYDVQQDEwR2bTE1MSAwHgYJ
KoZIhvcNAQkBFhFhZG1pbkBob3N0NGdlLmNvbTCCAiIwDQYJKoZIhvcNAQEBBQAD
ggIPADCCAgoCggIBAOGIMhMozamPiPmTCcOx0vG9pgYLifd7dr0NSY5sayn55Oro
RFmLqla8mKSEkdNhf1BFb8lQYxab3SQP35UDEN4BcNwhrPhp78lnDOyIlZDp5Z2i
oLszZjEwbV5L5UkfGh8vkm9vHODONmqeNhN2Z7xrpiLpFQiMHPp1RNVhWwHCPVzh
+dcfhPCok3UZmfgiXW5T/8lwIWlO2xcgZNVDXf+UM/veyyGRjMGF7ve80mQU7aKW
kiTtnFkztEjYn7BDgbPJxvm8Qd4CZbiYA7SNeBi0DSOqmoDW51nxIVzIgH0L98fT
wY0mys45kzICkUKWtGGNOMzW2GL9NIl26Q/j2UIoJKGeudpuAgq03LYWEWp+cLn+
zufvrXjYG5nX7m5ht9anQk9mznUumL1cGZ5KDMcHiwwTRFx8VZHzLASbtNp9Msiq
6THK68Xxz8EKuvlUBmBpWoSXSazgiMo9dab1BneyqUsWlU/nIMdhZx42SGxGQKgt
mDVw68WEQ6hTBKUMz2oelJndwtu3Vo5m93AjTnF/Hyn/E1UruMNjHyztrs/OOZMQ
ARM36rit1QDdJIc7mxyvc6WKKpr0A1Ak/7aY49skxoIK+CL3I+1yw7kcIWMl17IZ
F0f4YPZETNRMc9DttFGtOSnqJXLTBDlS5HVwotct9LZ7HWazuRgodLyUZgZVAgMB
AAGjggEUMIIBEDAJBgNVHRMEAjAAMBEGCWCGSAGG+EIBAQQEAwIGQDA0BglghkgB
hvhCAQ0EJxYlRWFzeS1SU0EgR2VuZXJhdGVkIFNlcnZlciBDZXJ0aWZpY2F0ZTAd
BgNVHQ4EFgQU7IM74LrApcrtm3lL+Eb+rvUv4E4weQYDVR0jBHIwcIAUIMTkoS23
7pvixcjvDEOtqtffem+hTaRLMEkxCzAJBgNVBAYTAkdCMRAwDgYDVQQKEwdIb3N0
NGdlMRMwEQYDVQQDEwpIb3N0NGdlIENBMRMwEQYDVQQpEwpIb3N0NGdlIENBggkA
gX6d4Euy76owEwYDVR0lBAwwCgYIKwYBBQUHAwEwCwYDVR0PBAQDAgWgMA0GCSqG
SIb3DQEBBQUAA4ICAQC6JPjsW1Dm3jrFX+haY0VvANbb2aFBQYwsmuDfY60a4Ren
dnGmlvTURB2Z21xe4Z8isPn0iXfp4YU9ZpTgKF2x0oVoePKsIpAbzcR51AS1wQgs
WvrSwREDhWSll/tbmEmHJIulspDGcP6+Qv8UKZD6/+2kfj3pV9hxFnx9l+OLXpio
d0ChWesHg8/Wlrveseb9ZxYjyuvWZUE6AhlEci0849Xu3TemsWqu9qFUeGOAsLjD
OTYnZmRriKCfwB2HdgLR5GSD9q2FprGXUVNOCytxyWLOfdsQ1evY10sqM9qR39XO
DONUJjuJXKV/bQToT7ggjFuFwVNj21yHeKIKcgiIzJu0IkJN6+GgQFT9UcP48v8G
qd9J71F4gS0u+gvGJkP1tlB/HzCLODSPMEQis5neTYFH15oMpjMf+pzmXORMZoOG
2+ky50Cqab1LbN+O6qwd1XNHiSwWASc8IRmOysWzHsQsFfw1Y+Bv6YrP3G2/dDgn
xhof72zxqbSZupsmcKOKOz2PlZXbtphfpvpd/b12gmdF1Av5dyASB0Fxqhssek4a
eQrTv1RopgSFkVt2yuGxA8jko6T0NqsgkiEn5lIfc5P35xJqaKZlsvMK+KZ73w7M
cJ222WT+IQX8/xrAybqidTJ90Ev+xLOYa0G6hagacJzuLG95XZRoWgH3vYxDvg==
-----END CERTIFICATE-----
