Certificate:
    Data:
        Version: 3 (0x2)
        Serial Number: 2 (0x2)
    Signature Algorithm: sha1WithRSAEncryption
        Issuer: C=GB, O=Host4ge, CN=Host4ge CA/name=Host4ge CA
        Validity
            Not Before: Aug  9 22:49:16 2012 GMT
            Not After : Aug  7 22:49:16 2022 GMT
        Subject: C=GB, O=Host4ge, CN=vm11/emailAddress=admin@host4ge.com
        Subject Public Key Info:
            Public Key Algorithm: rsaEncryption
                Public-Key: (4096 bit)
                Modulus:
                    00:bf:a0:5f:87:fd:1e:cb:08:da:9a:09:a7:b9:1b:
                    47:84:f7:51:a0:33:28:9f:32:dd:bb:3f:c9:31:cc:
                    b6:0c:b3:36:ba:43:06:c2:af:38:61:67:6f:35:a1:
                    d6:c7:33:2e:12:23:0b:fc:b4:be:95:41:c9:12:1f:
                    15:f8:4f:40:98:1d:7c:07:05:1e:1c:26:30:a5:f5:
                    35:74:2d:c2:f0:e5:96:cc:be:a9:32:c2:83:09:13:
                    91:34:f6:da:3a:ea:03:f6:c6:36:48:cd:8c:fa:b0:
                    f6:df:72:22:0a:93:9d:3e:22:a3:0e:06:82:8e:80:
                    6e:e0:80:4f:b7:92:fc:79:c8:af:34:69:c8:8a:be:
                    a4:a1:08:e5:52:4d:06:66:68:44:6e:6e:6b:38:a3:
                    c5:78:ef:47:e9:67:9b:f5:80:db:e2:19:14:a4:9a:
                    25:53:51:63:dd:65:52:0f:16:c2:48:49:2b:0d:f9:
                    3c:f3:5e:29:9b:0d:2d:5e:3b:55:3d:a3:5c:b2:7c:
                    6f:08:20:18:e2:57:e2:32:4e:cc:ed:72:be:f5:ad:
                    9b:46:aa:60:06:75:5c:65:cf:f4:0d:43:da:1f:ce:
                    34:e2:4a:15:a8:8e:4a:c1:7c:7b:91:95:35:14:88:
                    b9:1b:82:5c:bd:4d:85:f3:43:42:67:92:20:54:f3:
                    fb:49:a5:45:db:02:f9:bc:14:1c:d1:b7:6a:c9:6f:
                    67:74:29:92:6d:47:2d:94:6c:ae:78:43:82:7e:f5:
                    e8:68:17:4d:3c:1f:f5:4f:a9:9e:78:18:88:0e:fa:
                    c3:64:9f:86:3d:ed:0f:ee:eb:bf:ac:5a:e6:38:91:
                    88:6e:06:1e:cd:b5:10:a8:3d:45:99:57:df:4b:93:
                    71:e6:5e:70:3e:10:72:dd:18:6d:40:58:a1:cf:f4:
                    9b:e4:90:88:a1:5a:49:74:c3:ca:00:6d:8a:29:64:
                    10:90:18:ca:39:7c:ed:89:d0:bd:98:0a:cd:2a:1f:
                    ce:6f:fb:24:3b:21:0f:15:81:2c:cc:cd:a3:3f:59:
                    27:03:93:6d:48:5d:8c:44:d8:47:7e:70:b0:0a:86:
                    0d:17:f4:8a:23:d3:08:ce:f6:c1:7a:90:54:da:d1:
                    ce:23:6e:ab:01:c8:64:52:ac:52:c3:f5:21:d9:d1:
                    11:6c:2d:21:64:1d:ab:44:94:cd:7e:d1:7a:e5:68:
                    08:e6:43:31:83:1f:cd:5a:e1:5b:c8:91:9c:4c:45:
                    33:56:60:ed:4c:99:96:37:1a:29:29:5c:c3:5f:9d:
                    03:7c:52:2b:fb:4a:06:28:58:f7:2d:d8:33:21:2e:
                    7f:32:55:61:c6:2f:4a:dd:5e:46:81:95:24:8c:1e:
                    6d:41:05
                Exponent: 65537 (0x10001)
        X509v3 extensions:
            X509v3 Basic Constraints: 
                CA:FALSE
            Netscape Comment: 
                Easy-RSA Generated Certificate
            X509v3 Subject Key Identifier: 
                BD:65:9A:1D:6F:F5:38:48:92:F7:B4:48:01:EC:17:62:EC:30:06:A4
            X509v3 Authority Key Identifier: 
                keyid:20:C4:E4:A1:2D:B7:EE:9B:E2:C5:C8:EF:0C:43:AD:AA:D7:DF:7A:6F
                DirName:/C=GB/O=Host4ge/CN=Host4ge CA/name=Host4ge CA
                serial:81:7E:9D:E0:4B:B2:EF:AA

            X509v3 Extended Key Usage: 
                TLS Web Client Authentication
            X509v3 Key Usage: 
                Digital Signature
    Signature Algorithm: sha1WithRSAEncryption
         c3:a0:a8:a1:6c:cd:84:87:78:d2:81:8b:f9:9f:67:2d:33:f1:
         d0:f4:f8:ba:39:2d:be:9c:78:f4:99:d0:dc:3e:1b:e9:1a:bc:
         87:c4:c0:4f:19:f1:57:d4:95:d3:3c:fc:cd:dd:8e:f0:09:55:
         96:76:96:9a:fa:1c:a0:85:6d:e8:aa:fb:1c:5a:89:77:ec:14:
         bb:25:af:71:a8:8f:a4:73:7b:e9:ce:f4:6a:da:f6:cf:23:b6:
         8e:8c:1c:9a:1d:e7:cc:0e:7f:8d:f2:3d:f2:6f:95:77:3e:77:
         68:5b:5c:26:1e:c2:62:ba:c3:f9:75:1a:00:d1:b6:1b:a3:dc:
         da:f3:5b:c2:50:d2:8e:0a:a2:92:ba:08:01:04:b4:a8:2c:7f:
         26:e0:6c:b9:96:de:35:f5:79:61:26:9e:08:ba:56:34:04:26:
         d7:f4:aa:8f:8e:88:8d:dd:dd:c2:0f:02:b7:fd:e5:cf:33:24:
         e4:06:03:46:c0:fa:a4:2e:a2:ef:ed:99:d7:f8:b5:7d:e8:00:
         77:ca:13:02:75:cd:73:4a:c4:80:8f:8f:d0:ca:1d:a1:a5:99:
         4c:cc:d9:c9:5d:f4:2d:9a:23:7d:1d:8e:04:a2:ac:07:a4:59:
         98:23:c9:6e:3c:8f:bd:0b:0e:2b:89:0f:a6:c0:11:17:75:8b:
         d5:11:8c:cf:0f:2d:67:6e:01:ae:2b:4b:d4:4e:68:4a:98:84:
         f4:4f:27:9c:9c:f5:b2:3a:f0:b0:dd:f2:cb:db:37:04:54:fe:
         76:52:95:ab:22:13:07:a8:0a:b6:a5:e5:39:40:f8:2b:a3:d6:
         6b:3f:23:9d:e5:0c:4c:95:a0:f6:31:6e:80:fe:c2:6a:f7:d5:
         b4:84:28:d3:6c:f4:e3:8a:c9:e6:ae:dc:ba:3b:9f:fc:d3:f6:
         0a:da:69:4e:03:f5:5e:1c:1f:1a:59:77:80:31:59:3c:7d:05:
         25:2b:05:76:9d:1a:1b:5e:1c:f4:8f:9e:0b:82:7f:0e:6e:01:
         5b:3e:7f:8b:d7:e2:16:30:78:04:20:cb:db:13:29:e9:ce:11:
         e5:b7:ae:49:7f:4c:d2:8f:ac:4e:3b:c1:ac:cd:4f:61:ec:76:
         96:6d:dc:96:de:a5:34:e6:8d:0c:5b:52:72:01:5c:8f:ea:f7:
         2f:91:96:2e:ab:19:9f:37:9c:be:00:f4:f7:88:d4:c8:68:01:
         07:01:2e:e6:ef:94:e3:c2:d9:35:02:ed:ba:e8:2e:41:7e:ea:
         0c:35:ec:82:2e:35:9b:8a:c0:e7:01:14:9d:7e:f1:d6:10:df:
         66:44:5f:a6:11:b1:74:56:02:5a:0b:1e:ba:ae:16:a4:84:b8:
         17:c1:ce:9f:0a:87:84:15
-----BEGIN CERTIFICATE-----
MIIGDjCCA/agAwIBAgIBAjANBgkqhkiG9w0BAQUFADBJMQswCQYDVQQGEwJHQjEQ
MA4GA1UEChMHSG9zdDRnZTETMBEGA1UEAxMKSG9zdDRnZSBDQTETMBEGA1UEKRMK
SG9zdDRnZSBDQTAeFw0xMjA4MDkyMjQ5MTZaFw0yMjA4MDcyMjQ5MTZaMFAxCzAJ
BgNVBAYTAkdCMRAwDgYDVQQKEwdIb3N0NGdlMQ0wCwYDVQQDEwR2bTExMSAwHgYJ
KoZIhvcNAQkBFhFhZG1pbkBob3N0NGdlLmNvbTCCAiIwDQYJKoZIhvcNAQEBBQAD
ggIPADCCAgoCggIBAL+gX4f9HssI2poJp7kbR4T3UaAzKJ8y3bs/yTHMtgyzNrpD
BsKvOGFnbzWh1sczLhIjC/y0vpVByRIfFfhPQJgdfAcFHhwmMKX1NXQtwvDllsy+
qTLCgwkTkTT22jrqA/bGNkjNjPqw9t9yIgqTnT4iow4Ggo6AbuCAT7eS/HnIrzRp
yIq+pKEI5VJNBmZoRG5uazijxXjvR+lnm/WA2+IZFKSaJVNRY91lUg8WwkhJKw35
PPNeKZsNLV47VT2jXLJ8bwggGOJX4jJOzO1yvvWtm0aqYAZ1XGXP9A1D2h/ONOJK
FaiOSsF8e5GVNRSIuRuCXL1NhfNDQmeSIFTz+0mlRdsC+bwUHNG3aslvZ3Qpkm1H
LZRsrnhDgn716GgXTTwf9U+pnngYiA76w2Sfhj3tD+7rv6xa5jiRiG4GHs21EKg9
RZlX30uTceZecD4Qct0YbUBYoc/0m+SQiKFaSXTDygBtiilkEJAYyjl87YnQvZgK
zSofzm/7JDshDxWBLMzNoz9ZJwOTbUhdjETYR35wsAqGDRf0iiPTCM72wXqQVNrR
ziNuqwHIZFKsUsP1IdnREWwtIWQdq0SUzX7ReuVoCOZDMYMfzVrhW8iRnExFM1Zg
7UyZljcaKSlcw1+dA3xSK/tKBihY9y3YMyEufzJVYcYvSt1eRoGVJIwebUEFAgMB
AAGjgfkwgfYwCQYDVR0TBAIwADAtBglghkgBhvhCAQ0EIBYeRWFzeS1SU0EgR2Vu
ZXJhdGVkIENlcnRpZmljYXRlMB0GA1UdDgQWBBS9ZZodb/U4SJL3tEgB7Bdi7DAG
pDB5BgNVHSMEcjBwgBQgxOShLbfum+LFyO8MQ62q1996b6FNpEswSTELMAkGA1UE
BhMCR0IxEDAOBgNVBAoTB0hvc3Q0Z2UxEzARBgNVBAMTCkhvc3Q0Z2UgQ0ExEzAR
BgNVBCkTCkhvc3Q0Z2UgQ0GCCQCBfp3gS7LvqjATBgNVHSUEDDAKBggrBgEFBQcD
AjALBgNVHQ8EBAMCB4AwDQYJKoZIhvcNAQEFBQADggIBAMOgqKFszYSHeNKBi/mf
Zy0z8dD0+Lo5Lb6cePSZ0Nw+G+kavIfEwE8Z8VfUldM8/M3djvAJVZZ2lpr6HKCF
beiq+xxaiXfsFLslr3Goj6Rze+nO9Gra9s8jto6MHJod58wOf43yPfJvlXc+d2hb
XCYewmK6w/l1GgDRthuj3NrzW8JQ0o4KopK6CAEEtKgsfybgbLmW3jX1eWEmngi6
VjQEJtf0qo+OiI3d3cIPArf95c8zJOQGA0bA+qQuou/tmdf4tX3oAHfKEwJ1zXNK
xICPj9DKHaGlmUzM2cld9C2aI30djgSirAekWZgjyW48j70LDiuJD6bAERd1i9UR
jM8PLWduAa4rS9ROaEqYhPRPJ5yc9bI68LDd8svbNwRU/nZSlasiEweoCral5TlA
+Cuj1ms/I53lDEyVoPYxboD+wmr31bSEKNNs9OOKyeau3Lo7n/zT9graaU4D9V4c
HxpZd4AxWTx9BSUrBXadGhteHPSPnguCfw5uAVs+f4vX4hYweAQgy9sTKenOEeW3
rkl/TNKPrE47wazNT2HsdpZt3JbepTTmjQxbUnIBXI/q9y+Rli6rGZ83nL4A9PeI
1MhoAQcBLubvlOPC2TUC7broLkF+6gw17IIuNZuKwOcBFJ1+8dYQ32ZEX6YRsXRW
AloLHrquFqSEuBfBzp8Kh4QV
-----END CERTIFICATE-----
