Certificate:
    Data:
        Version: 3 (0x2)
        Serial Number: 5 (0x5)
    Signature Algorithm: sha1WithRSAEncryption
        Issuer: C=GB, O=Host4ge, CN=Host4ge CA/name=Host4ge CA
        Validity
            Not Before: Aug  9 22:49:40 2012 GMT
            Not After : Aug  7 22:49:40 2022 GMT
        Subject: C=GB, O=Host4ge, CN=vm14/emailAddress=admin@host4ge.com
        Subject Public Key Info:
            Public Key Algorithm: rsaEncryption
                Public-Key: (4096 bit)
                Modulus:
                    00:d9:35:22:6d:01:a8:f6:7f:60:11:02:88:f7:87:
                    af:23:61:ce:a1:1c:78:cb:cd:74:16:4a:10:c9:8e:
                    8c:f2:0b:c9:e4:da:d9:4c:88:2f:d6:54:1b:82:44:
                    98:8f:f5:cf:d6:82:2c:a9:e9:e9:90:86:be:3d:13:
                    26:e8:f2:4e:5c:2a:7f:b9:10:37:1e:e1:96:cf:5b:
                    fd:5c:73:5e:cf:b8:01:d7:b1:8f:c7:06:c3:53:c4:
                    79:7f:a4:5e:f6:08:4b:f2:8e:97:25:95:d7:09:46:
                    fb:03:82:8c:f1:87:b3:25:6d:07:0a:8b:bd:43:f4:
                    62:48:19:4e:2c:86:c4:56:be:d6:4a:3d:8d:2a:f6:
                    e9:1b:fe:ad:24:30:6c:82:40:8c:93:24:72:24:ce:
                    76:77:5b:38:6a:e7:9a:70:06:8a:68:c1:95:8a:fe:
                    3e:3c:f5:a5:15:d0:f5:e0:ea:d4:ef:81:28:fe:3c:
                    0e:fc:35:a5:56:43:3b:87:47:c9:eb:b0:18:36:f2:
                    4c:98:70:d0:37:20:cb:3a:b5:ba:59:08:f7:60:9c:
                    2e:e9:0f:f3:d6:6c:3c:a1:34:f1:79:f2:28:e0:27:
                    b2:d0:bd:c6:ee:8a:d4:6f:56:07:89:66:0e:c0:14:
                    d8:ab:8b:95:fc:9e:38:2f:85:2d:03:17:13:cd:e6:
                    fe:92:08:e6:95:dd:9c:45:44:7f:fb:b2:92:a8:30:
                    35:31:58:26:67:9e:c2:7e:a7:5d:18:6e:d7:15:f7:
                    cf:eb:c3:ab:d0:89:a2:83:ef:47:19:4c:fd:d5:1d:
                    c9:3f:99:06:be:dd:f7:13:6c:4c:79:4a:11:ba:bb:
                    a8:9b:19:52:e6:5a:84:91:76:03:e9:9c:18:73:c7:
                    5d:ca:52:6f:28:d0:c2:d4:f5:43:52:35:d2:ef:d2:
                    5d:50:8a:e4:5e:be:a5:ca:61:43:5d:74:ca:d4:b4:
                    29:d5:81:a4:29:d5:6e:da:e3:53:14:32:d4:62:f3:
                    3d:98:75:05:25:cc:b0:f0:4a:ad:41:27:17:ca:ad:
                    4e:e8:86:b6:c7:8e:f1:52:4c:72:29:87:54:0a:bb:
                    81:5e:8b:06:d2:d6:53:3b:60:e2:56:69:7b:0e:18:
                    be:4a:75:70:25:2b:b8:71:03:15:16:73:ea:dc:4d:
                    b8:cc:98:7a:77:61:f7:06:46:d7:c8:7a:51:9c:f8:
                    32:93:b5:84:b4:1e:65:ed:5b:29:f7:4e:7a:e8:ce:
                    dd:db:42:6e:d1:52:90:6e:ac:c4:1d:69:b7:60:78:
                    fa:3f:f8:08:a7:db:d4:2d:f1:fa:10:31:a7:f8:09:
                    dc:a4:f2:9f:b9:53:80:d6:d7:e9:93:2b:00:78:e8:
                    24:01:09
                Exponent: 65537 (0x10001)
        X509v3 extensions:
            X509v3 Basic Constraints: 
                CA:FALSE
            Netscape Comment: 
                Easy-RSA Generated Certificate
            X509v3 Subject Key Identifier: 
                29:18:31:06:61:05:29:E1:9F:73:26:9C:ED:4B:83:73:2E:9F:E6:1C
            X509v3 Authority Key Identifier: 
                keyid:20:C4:E4:A1:2D:B7:EE:9B:E2:C5:C8:EF:0C:43:AD:AA:D7:DF:7A:6F
                DirName:/C=GB/O=Host4ge/CN=Host4ge CA/name=Host4ge CA
                serial:81:7E:9D:E0:4B:B2:EF:AA

            X509v3 Extended Key Usage: 
                TLS Web Client Authentication
            X509v3 Key Usage: 
                Digital Signature
    Signature Algorithm: sha1WithRSAEncryption
         23:4f:45:0d:13:2a:ff:82:d3:59:16:ef:39:e9:f2:b4:18:4a:
         70:85:f4:de:cf:0b:9d:92:16:bc:a4:d1:6a:a0:b4:3b:93:d2:
         cd:70:6b:35:21:06:a0:86:71:38:94:d9:09:f1:fd:29:5a:da:
         79:49:65:df:1f:70:da:70:39:cc:ac:2f:50:b9:ef:ef:09:1d:
         ae:02:09:fc:a3:fb:f1:e2:74:49:8f:4c:5f:0d:a7:ca:fa:8d:
         55:55:5a:76:f4:cb:1e:31:66:9b:f5:f1:f1:74:49:b0:8a:e7:
         79:a9:59:48:c9:d1:1b:ca:54:43:18:ad:b4:bf:97:ed:14:f2:
         df:45:2e:da:4f:bd:9f:93:26:fd:bb:da:11:a5:0c:fa:17:a6:
         8f:75:ff:a7:33:2a:08:4a:64:cb:f7:4e:bd:43:c5:14:1d:0c:
         86:41:4f:c0:80:4d:50:2e:97:3a:43:bf:db:fa:a0:e8:0e:a3:
         0e:18:2d:0b:96:1e:b3:aa:b2:4c:18:fd:f2:7d:87:48:49:23:
         8f:44:8a:1c:23:78:14:90:0c:93:1e:09:f7:cb:e2:16:d0:25:
         69:36:08:5b:f8:ce:0e:db:d4:af:a1:1e:c8:ce:00:49:4d:29:
         e1:f6:56:ac:1b:b6:a9:5b:04:78:3a:c0:e8:9f:a7:88:ea:61:
         0a:d3:8d:10:39:b7:41:94:2f:03:cb:82:33:2a:bc:12:0c:d3:
         06:96:68:14:e9:e7:92:78:ac:a2:22:a1:a3:81:b7:78:bd:4b:
         a5:62:75:7d:f5:ff:a5:f0:2f:80:38:51:09:55:21:38:a1:55:
         4c:16:c5:ae:59:b5:29:c3:1b:03:81:c9:0a:fb:72:9b:0a:df:
         55:a7:20:1e:70:4a:f1:e7:3a:e6:d1:a8:a7:6d:58:59:e2:3d:
         9f:12:3d:8c:85:fb:b1:41:7c:1d:c5:91:fb:8c:4f:45:ae:2e:
         1e:46:30:65:91:02:3f:3e:1b:dc:58:fe:7d:cb:8c:41:7f:98:
         91:5b:83:04:01:38:f0:6e:45:97:b9:56:dc:8d:0c:77:d9:c6:
         d1:20:0f:68:e1:87:b8:47:eb:e4:40:64:52:49:1c:3e:99:a1:
         49:73:d8:4f:4d:c5:10:fb:01:53:ae:9f:b2:3e:ee:22:17:b9:
         16:a7:44:09:db:a7:26:e6:6a:1c:a8:66:1d:25:0b:3b:c8:66:
         12:08:d3:a3:ef:80:7d:50:96:48:88:c8:8f:01:bf:40:58:b6:
         3a:a2:92:d3:15:0a:2f:42:82:4a:8d:7a:e3:9b:f5:b9:31:2b:
         8e:a7:4c:b8:95:83:d1:52:8c:3c:7f:5f:38:93:4d:41:5d:0e:
         be:90:4e:28:39:33:47:61
-----BEGIN CERTIFICATE-----
MIIGDjCCA/agAwIBAgIBBTANBgkqhkiG9w0BAQUFADBJMQswCQYDVQQGEwJHQjEQ
MA4GA1UEChMHSG9zdDRnZTETMBEGA1UEAxMKSG9zdDRnZSBDQTETMBEGA1UEKRMK
SG9zdDRnZSBDQTAeFw0xMjA4MDkyMjQ5NDBaFw0yMjA4MDcyMjQ5NDBaMFAxCzAJ
BgNVBAYTAkdCMRAwDgYDVQQKEwdIb3N0NGdlMQ0wCwYDVQQDEwR2bTE0MSAwHgYJ
KoZIhvcNAQkBFhFhZG1pbkBob3N0NGdlLmNvbTCCAiIwDQYJKoZIhvcNAQEBBQAD
ggIPADCCAgoCggIBANk1Im0BqPZ/YBECiPeHryNhzqEceMvNdBZKEMmOjPILyeTa
2UyIL9ZUG4JEmI/1z9aCLKnp6ZCGvj0TJujyTlwqf7kQNx7hls9b/VxzXs+4Adex
j8cGw1PEeX+kXvYIS/KOlyWV1wlG+wOCjPGHsyVtBwqLvUP0YkgZTiyGxFa+1ko9
jSr26Rv+rSQwbIJAjJMkciTOdndbOGrnmnAGimjBlYr+Pjz1pRXQ9eDq1O+BKP48
Dvw1pVZDO4dHyeuwGDbyTJhw0Dcgyzq1ulkI92CcLukP89ZsPKE08XnyKOAnstC9
xu6K1G9WB4lmDsAU2KuLlfyeOC+FLQMXE83m/pII5pXdnEVEf/uykqgwNTFYJmee
wn6nXRhu1xX3z+vDq9CJooPvRxlM/dUdyT+ZBr7d9xNsTHlKEbq7qJsZUuZahJF2
A+mcGHPHXcpSbyjQwtT1Q1I10u/SXVCK5F6+pcphQ110ytS0KdWBpCnVbtrjUxQy
1GLzPZh1BSXMsPBKrUEnF8qtTuiGtseO8VJMcimHVAq7gV6LBtLWUztg4lZpew4Y
vkp1cCUruHEDFRZz6txNuMyYendh9wZG18h6UZz4MpO1hLQeZe1bKfdOeujO3dtC
btFSkG6sxB1pt2B4+j/4CKfb1C3x+hAxp/gJ3KTyn7lTgNbX6ZMrAHjoJAEJAgMB
AAGjgfkwgfYwCQYDVR0TBAIwADAtBglghkgBhvhCAQ0EIBYeRWFzeS1SU0EgR2Vu
ZXJhdGVkIENlcnRpZmljYXRlMB0GA1UdDgQWBBQpGDEGYQUp4Z9zJpztS4NzLp/m
HDB5BgNVHSMEcjBwgBQgxOShLbfum+LFyO8MQ62q1996b6FNpEswSTELMAkGA1UE
BhMCR0IxEDAOBgNVBAoTB0hvc3Q0Z2UxEzARBgNVBAMTCkhvc3Q0Z2UgQ0ExEzAR
BgNVBCkTCkhvc3Q0Z2UgQ0GCCQCBfp3gS7LvqjATBgNVHSUEDDAKBggrBgEFBQcD
AjALBgNVHQ8EBAMCB4AwDQYJKoZIhvcNAQEFBQADggIBACNPRQ0TKv+C01kW7znp
8rQYSnCF9N7PC52SFryk0WqgtDuT0s1wazUhBqCGcTiU2Qnx/Sla2nlJZd8fcNpw
OcysL1C57+8JHa4CCfyj+/HidEmPTF8Np8r6jVVVWnb0yx4xZpv18fF0SbCK53mp
WUjJ0RvKVEMYrbS/l+0U8t9FLtpPvZ+TJv272hGlDPoXpo91/6czKghKZMv3Tr1D
xRQdDIZBT8CATVAulzpDv9v6oOgOow4YLQuWHrOqskwY/fJ9h0hJI49EihwjeBSQ
DJMeCffL4hbQJWk2CFv4zg7b1K+hHsjOAElNKeH2VqwbtqlbBHg6wOifp4jqYQrT
jRA5t0GULwPLgjMqvBIM0waWaBTp55J4rKIioaOBt3i9S6VidX31/6XwL4A4UQlV
ITihVUwWxa5ZtSnDGwOByQr7cpsK31WnIB5wSvHnOubRqKdtWFniPZ8SPYyF+7FB
fB3FkfuMT0WuLh5GMGWRAj8+G9xY/n3LjEF/mJFbgwQBOPBuRZe5VtyNDHfZxtEg
D2jhh7hH6+RAZFJJHD6ZoUlz2E9NxRD7AVOun7I+7iIXuRanRAnbpybmahyoZh0l
CzvIZhII06PvgH1QlkiIyI8Bv0BYtjqiktMVCi9CgkqNeuOb9bkxK46nTLiVg9FS
jDx/XziTTUFdDr6QTig5M0dh
-----END CERTIFICATE-----
