Certificate:
    Data:
        Version: 3 (0x2)
        Serial Number: 6 (0x6)
    Signature Algorithm: sha1WithRSAEncryption
        Issuer: C=GB, O=Host4ge, CN=Host4ge CA/name=Host4ge CA
        Validity
            Not Before: Aug  9 22:49:47 2012 GMT
            Not After : Aug  7 22:49:47 2022 GMT
        Subject: C=GB, O=Host4ge, CN=vms1/emailAddress=admin@host4ge.com
        Subject Public Key Info:
            Public Key Algorithm: rsaEncryption
                Public-Key: (4096 bit)
                Modulus:
                    00:d6:0e:aa:fa:eb:87:64:00:2e:59:d3:eb:5c:8b:
                    f3:ee:8e:49:04:8f:88:9c:e8:c1:95:dc:4c:05:f3:
                    6e:4f:f7:3f:d9:b8:01:6d:d3:54:93:bd:c2:63:57:
                    0e:a0:77:0c:65:b9:07:b4:59:67:de:2f:11:c8:65:
                    41:28:9d:60:fc:c3:35:79:a8:be:7a:57:45:77:a5:
                    de:5c:0d:57:3e:d8:01:13:a8:71:a3:0d:38:d9:e3:
                    5b:1e:6c:e6:47:ab:74:02:7a:67:13:d4:04:2e:a8:
                    23:83:91:59:19:f9:7b:e0:82:56:19:7b:93:6f:3d:
                    2f:b8:e9:7d:3b:ab:86:ca:00:c7:f5:41:31:db:b2:
                    f5:e9:1d:98:11:22:9d:b8:02:f6:76:01:6f:f5:09:
                    ff:22:fd:27:ba:6d:a9:76:2b:a8:b9:22:d3:76:e8:
                    59:26:1d:b5:50:1a:74:18:1a:c2:7c:f2:82:21:22:
                    f4:b9:41:77:59:62:73:eb:4b:4e:1e:4d:01:5e:f0:
                    c0:0e:b4:56:0a:de:9b:ac:a3:64:20:1a:2f:61:ea:
                    b5:35:c1:de:4d:8c:c5:c5:84:a3:a8:57:ce:a3:84:
                    fb:d2:24:e0:b3:59:e2:df:3d:ec:b5:57:85:be:f5:
                    21:05:62:7c:d8:a8:b4:32:86:c5:e0:56:14:22:6e:
                    68:f4:5e:cc:ae:63:e0:b0:b5:c5:ea:66:e5:8b:c1:
                    c8:5f:97:90:a9:3c:b9:df:d6:00:9c:74:bd:29:c0:
                    e9:2f:1f:5a:93:d5:ca:cf:3b:a4:54:1b:ec:a0:41:
                    c7:ea:89:1c:51:13:c0:da:cc:fa:88:15:c4:0a:51:
                    2f:ac:70:88:be:6a:72:e8:34:f6:9c:b5:b9:fe:53:
                    92:33:da:b6:9a:44:12:1c:87:d7:8f:ec:2a:c8:0e:
                    23:3e:96:b2:60:7a:80:42:95:64:d7:e7:44:2f:59:
                    44:db:91:fd:d4:c1:b0:01:40:f1:2b:9b:31:5d:79:
                    96:d7:ef:ea:e2:fa:95:d0:db:e9:de:47:ed:e5:06:
                    90:92:06:29:de:6a:94:0a:bb:6d:63:35:32:2d:86:
                    9e:3b:c6:e0:37:3f:d0:51:f0:93:0c:03:3c:1a:d8:
                    c0:79:b8:14:30:50:e5:04:fc:a5:dd:0a:af:5e:b8:
                    39:da:09:02:18:39:1f:7f:73:be:d1:28:77:1e:05:
                    02:43:d2:a0:7b:62:1f:d2:81:ac:28:0e:a2:43:e0:
                    56:85:a4:0c:b0:2c:77:66:0e:3e:36:06:b1:9b:18:
                    7c:a0:dc:90:c1:d6:4f:88:58:db:bf:32:b5:ac:3a:
                    03:4d:e0:d0:3b:7c:fb:3a:a0:0b:64:55:41:72:c5:
                    c5:cb:ef
                Exponent: 65537 (0x10001)
        X509v3 extensions:
            X509v3 Basic Constraints: 
                CA:FALSE
            Netscape Comment: 
                Easy-RSA Generated Certificate
            X509v3 Subject Key Identifier: 
                5F:62:2A:5F:24:B4:EB:E7:9E:05:34:5A:90:26:E9:CB:D6:DD:94:C1
            X509v3 Authority Key Identifier: 
                keyid:20:C4:E4:A1:2D:B7:EE:9B:E2:C5:C8:EF:0C:43:AD:AA:D7:DF:7A:6F
                DirName:/C=GB/O=Host4ge/CN=Host4ge CA/name=Host4ge CA
                serial:81:7E:9D:E0:4B:B2:EF:AA

            X509v3 Extended Key Usage: 
                TLS Web Client Authentication
            X509v3 Key Usage: 
                Digital Signature
    Signature Algorithm: sha1WithRSAEncryption
         8a:9c:97:8d:9f:6f:54:c4:26:c4:84:6a:9f:89:75:60:a0:3c:
         0e:ce:5f:63:26:5d:ce:8b:83:05:86:d7:67:ac:47:e0:bb:7a:
         9f:3a:9f:dd:c3:f8:ba:80:a0:80:39:60:04:6c:f5:47:8d:42:
         b2:81:d8:ac:1b:11:30:6c:07:fb:c0:12:31:07:75:a5:a8:11:
         66:dd:a2:98:a9:32:8d:72:47:99:f0:35:11:d8:e6:bb:08:ad:
         3e:6b:da:6b:d5:18:24:e0:b1:a9:1e:c4:a8:b4:b9:de:a8:30:
         54:44:e2:b2:13:69:87:ea:f8:83:b9:04:5c:3c:0e:64:c7:9f:
         32:f1:24:db:28:78:ee:61:41:51:82:e1:e8:fc:f1:2e:d4:32:
         c7:6c:aa:2c:b9:2d:15:04:5f:72:d6:a6:bb:e0:92:58:e4:67:
         7a:71:28:a0:bd:8a:b0:38:b7:24:29:04:c3:25:f3:04:40:87:
         1a:da:14:d9:4d:75:69:f6:9f:13:07:ef:58:c6:e7:64:65:a2:
         ad:89:9f:97:6a:ab:7c:d2:5d:2f:c6:dc:ae:88:a4:c0:f4:96:
         ee:f8:5b:3b:5f:cb:40:11:2c:02:cc:36:05:c1:26:23:b5:73:
         43:c8:6d:13:6a:2a:86:17:47:99:29:18:f5:b8:60:9f:9c:dc:
         99:27:cf:87:66:f7:94:99:07:ea:f9:13:fc:0e:45:35:5f:19:
         eb:11:cc:00:8a:97:64:4f:6d:7e:27:29:d7:d7:65:e8:f2:04:
         76:fb:f8:7f:99:f7:d4:fe:9f:b8:8f:72:83:46:90:e7:4a:5b:
         7b:62:fd:6e:ef:c6:fc:b7:32:7d:6f:df:93:6e:74:84:89:24:
         51:cc:07:0d:66:12:78:5f:1b:eb:6a:0e:09:dc:26:56:fa:9c:
         89:d1:8a:0b:7c:a0:11:82:7b:0f:4e:ae:6c:83:46:6f:92:ed:
         50:79:9a:a4:89:b1:ff:c8:49:0a:8d:dc:6a:70:68:29:f4:13:
         cc:54:6a:5a:8e:33:96:42:07:95:2a:38:88:8e:bc:94:21:b8:
         bf:c4:24:6c:5e:7b:ad:d7:1d:93:c6:a0:2a:e5:a8:48:f7:c3:
         6f:a7:08:f4:c4:9d:03:a8:69:8d:f5:df:a5:3a:bf:56:ef:3b:
         9c:40:d8:60:45:28:eb:09:3a:96:40:e4:9f:4e:6e:48:32:25:
         b1:53:00:2f:4e:0e:38:6b:f2:b4:a5:51:53:17:40:80:e5:1e:
         33:37:48:95:07:2a:d1:1a:5e:7b:8e:f0:f1:1e:2b:81:04:48:
         54:44:c8:e9:d1:d4:4f:f6:2a:64:6d:0f:f6:9e:4f:6e:de:3c:
         67:2a:50:24:00:65:15:77
-----BEGIN CERTIFICATE-----
MIIGDjCCA/agAwIBAgIBBjANBgkqhkiG9w0BAQUFADBJMQswCQYDVQQGEwJHQjEQ
MA4GA1UEChMHSG9zdDRnZTETMBEGA1UEAxMKSG9zdDRnZSBDQTETMBEGA1UEKRMK
SG9zdDRnZSBDQTAeFw0xMjA4MDkyMjQ5NDdaFw0yMjA4MDcyMjQ5NDdaMFAxCzAJ
BgNVBAYTAkdCMRAwDgYDVQQKEwdIb3N0NGdlMQ0wCwYDVQQDEwR2bXMxMSAwHgYJ
KoZIhvcNAQkBFhFhZG1pbkBob3N0NGdlLmNvbTCCAiIwDQYJKoZIhvcNAQEBBQAD
ggIPADCCAgoCggIBANYOqvrrh2QALlnT61yL8+6OSQSPiJzowZXcTAXzbk/3P9m4
AW3TVJO9wmNXDqB3DGW5B7RZZ94vEchlQSidYPzDNXmovnpXRXel3lwNVz7YAROo
caMNONnjWx5s5kerdAJ6ZxPUBC6oI4ORWRn5e+CCVhl7k289L7jpfTurhsoAx/VB
Mduy9ekdmBEinbgC9nYBb/UJ/yL9J7ptqXYrqLki03boWSYdtVAadBgawnzygiEi
9LlBd1lic+tLTh5NAV7wwA60Vgrem6yjZCAaL2HqtTXB3k2MxcWEo6hXzqOE+9Ik
4LNZ4t897LVXhb71IQVifNiotDKGxeBWFCJuaPRezK5j4LC1xepm5YvByF+XkKk8
ud/WAJx0vSnA6S8fWpPVys87pFQb7KBBx+qJHFETwNrM+ogVxApRL6xwiL5qcug0
9py1uf5TkjPatppEEhyH14/sKsgOIz6WsmB6gEKVZNfnRC9ZRNuR/dTBsAFA8Sub
MV15ltfv6uL6ldDb6d5H7eUGkJIGKd5qlAq7bWM1Mi2GnjvG4Dc/0FHwkwwDPBrY
wHm4FDBQ5QT8pd0Kr164OdoJAhg5H39zvtEodx4FAkPSoHtiH9KBrCgOokPgVoWk
DLAsd2YOPjYGsZsYfKDckMHWT4hY278ytaw6A03g0Dt8+zqgC2RVQXLFxcvvAgMB
AAGjgfkwgfYwCQYDVR0TBAIwADAtBglghkgBhvhCAQ0EIBYeRWFzeS1SU0EgR2Vu
ZXJhdGVkIENlcnRpZmljYXRlMB0GA1UdDgQWBBRfYipfJLTr554FNFqQJunL1t2U
wTB5BgNVHSMEcjBwgBQgxOShLbfum+LFyO8MQ62q1996b6FNpEswSTELMAkGA1UE
BhMCR0IxEDAOBgNVBAoTB0hvc3Q0Z2UxEzARBgNVBAMTCkhvc3Q0Z2UgQ0ExEzAR
BgNVBCkTCkhvc3Q0Z2UgQ0GCCQCBfp3gS7LvqjATBgNVHSUEDDAKBggrBgEFBQcD
AjALBgNVHQ8EBAMCB4AwDQYJKoZIhvcNAQEFBQADggIBAIqcl42fb1TEJsSEap+J
dWCgPA7OX2MmXc6LgwWG12esR+C7ep86n93D+LqAoIA5YARs9UeNQrKB2KwbETBs
B/vAEjEHdaWoEWbdopipMo1yR5nwNRHY5rsIrT5r2mvVGCTgsakexKi0ud6oMFRE
4rITaYfq+IO5BFw8DmTHnzLxJNsoeO5hQVGC4ej88S7UMsdsqiy5LRUEX3LWprvg
kljkZ3pxKKC9irA4tyQpBMMl8wRAhxraFNlNdWn2nxMH71jG52Rloq2Jn5dqq3zS
XS/G3K6IpMD0lu74Wztfy0ARLALMNgXBJiO1c0PIbRNqKoYXR5kpGPW4YJ+c3Jkn
z4dm95SZB+r5E/wORTVfGesRzACKl2RPbX4nKdfXZejyBHb7+H+Z99T+n7iPcoNG
kOdKW3ti/W7vxvy3Mn1v35NudISJJFHMBw1mEnhfG+tqDgncJlb6nInRigt8oBGC
ew9OrmyDRm+S7VB5mqSJsf/ISQqN3GpwaCn0E8xUalqOM5ZCB5UqOIiOvJQhuL/E
JGxee63XHZPGoCrlqEj3w2+nCPTEnQOoaY3136U6v1bvO5xA2GBFKOsJOpZA5J9O
bkgyJbFTAC9ODjhr8rSlUVMXQIDlHjM3SJUHKtEaXnuO8PEeK4EESFREyOnR1E/2
KmRtD/aeT27ePGcqUCQAZRV3
-----END CERTIFICATE-----
