Certificate:
    Data:
        Version: 3 (0x2)
        Serial Number: 7 (0x7)
    Signature Algorithm: sha1WithRSAEncryption
        Issuer: C=GB, O=Host4ge, CN=Host4ge CA/name=Host4ge CA
        Validity
            Not Before: Aug  9 22:49:56 2012 GMT
            Not After : Aug  7 22:49:56 2022 GMT
        Subject: C=GB, O=Host4ge, CN=vm21/emailAddress=admin@host4ge.com
        Subject Public Key Info:
            Public Key Algorithm: rsaEncryption
                Public-Key: (4096 bit)
                Modulus:
                    00:bb:2d:9a:3b:b8:87:81:a5:f6:db:0c:1c:8e:ff:
                    79:18:65:53:17:44:06:76:7b:85:0f:f9:ec:70:27:
                    8a:c2:b3:92:8b:30:5c:89:f9:21:a5:b4:5f:26:74:
                    7d:57:ed:80:db:80:de:95:c2:85:86:de:3e:6d:84:
                    eb:b7:06:8d:bb:8a:e9:27:87:7c:ed:a3:73:dd:2c:
                    9d:dc:43:0d:00:28:01:b8:0d:22:11:1a:9a:48:b4:
                    a7:dd:8f:09:f5:3c:7c:16:fa:b4:11:fc:34:e6:d9:
                    fc:ef:3e:f5:2a:b4:51:95:fb:fa:d4:1f:19:e6:7b:
                    89:85:8c:64:b3:79:35:92:10:c7:15:df:a5:b6:0b:
                    f6:e3:a1:e9:41:39:70:bb:b3:f5:47:86:10:29:56:
                    20:ce:16:d0:a7:e5:1a:7a:aa:c0:9d:40:f0:b3:6f:
                    12:b7:28:2d:f0:e5:d5:db:7d:66:d9:12:20:2b:9e:
                    8c:1a:1b:68:64:f6:04:6d:28:28:b1:6a:5e:ad:20:
                    64:54:ac:48:cf:94:25:c7:10:35:76:fd:fc:49:b2:
                    0a:31:b5:bf:13:55:d7:b0:c9:6c:bb:c4:bf:1b:81:
                    d6:15:cf:4a:d7:db:ce:fe:d8:82:e7:dc:a2:35:cf:
                    be:ec:59:b9:e0:2a:bf:7d:24:49:09:8a:1a:a9:07:
                    41:81:66:50:b2:d6:84:51:b7:8d:0d:e5:94:7d:cc:
                    18:66:d8:c6:d2:42:99:19:c6:1c:ca:68:64:2f:b0:
                    78:82:8c:e0:05:1d:08:4c:a9:56:4e:4d:41:fb:28:
                    36:86:f6:d0:2a:f9:2c:07:a5:7b:93:93:83:b2:4e:
                    53:34:76:2b:a5:11:7b:68:04:3f:fc:f8:69:91:38:
                    2e:16:67:69:93:ed:8c:47:89:d2:11:78:b7:e5:2e:
                    d0:86:b0:3c:aa:f8:23:fa:df:a1:18:73:39:da:d8:
                    d7:0e:0e:a8:a0:5b:6d:f7:cb:90:92:0d:46:e0:6a:
                    ad:02:82:4a:3f:70:fa:6e:06:c7:e2:b8:de:19:08:
                    a4:c8:c8:49:43:3e:b4:dc:a6:88:f9:20:35:65:63:
                    50:be:39:6a:95:09:53:ae:50:d7:4f:7f:a1:ae:57:
                    06:90:30:18:f0:15:83:d7:0b:2c:67:79:3f:b5:17:
                    c1:10:ea:d3:bb:6e:7a:cd:44:93:fc:bd:bb:1b:f5:
                    c2:a2:ed:c6:bd:35:11:85:1f:ec:6a:cf:85:4f:2c:
                    a4:9a:24:04:3d:26:0f:18:2b:05:5e:72:15:c8:47:
                    5e:80:1d:dd:29:a3:c8:f8:63:66:69:7c:c8:ea:59:
                    b3:16:5b:10:6f:e6:27:ad:40:f6:85:74:f2:a2:16:
                    25:9a:09
                Exponent: 65537 (0x10001)
        X509v3 extensions:
            X509v3 Basic Constraints: 
                CA:FALSE
            Netscape Comment: 
                Easy-RSA Generated Certificate
            X509v3 Subject Key Identifier: 
                B2:9D:E2:B4:CE:3C:AB:96:73:04:1C:2D:1B:D1:96:6A:5D:AA:B1:04
            X509v3 Authority Key Identifier: 
                keyid:20:C4:E4:A1:2D:B7:EE:9B:E2:C5:C8:EF:0C:43:AD:AA:D7:DF:7A:6F
                DirName:/C=GB/O=Host4ge/CN=Host4ge CA/name=Host4ge CA
                serial:81:7E:9D:E0:4B:B2:EF:AA

            X509v3 Extended Key Usage: 
                TLS Web Client Authentication
            X509v3 Key Usage: 
                Digital Signature
    Signature Algorithm: sha1WithRSAEncryption
         0c:ea:7b:f2:48:36:ef:fc:f8:75:8e:98:00:93:8b:b3:b4:c4:
         c5:f4:68:e7:9a:c5:eb:d1:9a:30:f7:47:2d:24:e1:70:1c:fe:
         f1:ce:52:05:95:ca:9a:12:b2:68:bb:be:f8:3d:b4:5b:7e:da:
         33:bf:d2:84:c9:3e:42:ce:20:6c:0a:ac:81:46:04:0f:b7:ba:
         a8:15:60:aa:73:d7:a9:10:25:a7:cb:d0:d8:a8:fd:0e:a6:43:
         13:02:be:f8:6d:d7:8e:fd:0e:c8:40:05:7a:09:c9:1a:23:f9:
         45:ae:20:af:24:d6:32:99:45:62:c6:e4:9b:fd:14:72:f1:9d:
         ed:22:c3:cf:90:3e:5b:eb:43:53:32:b5:db:1b:e8:9c:c1:4c:
         ff:d6:2e:6b:9d:42:d6:19:fb:3f:1e:b5:6c:12:51:e0:5b:8b:
         01:39:33:ff:b4:26:e3:e4:0a:1b:65:b5:f7:85:01:30:16:74:
         36:d9:2d:3f:25:df:12:04:9a:4e:40:6b:52:fc:a1:86:c6:3f:
         b7:40:40:81:5a:c0:ea:1a:67:bc:b8:c4:8d:e4:e9:41:ae:91:
         15:b3:75:34:ca:a8:1e:a4:c8:c5:d6:52:cc:cd:06:7f:dc:0d:
         9b:b6:85:42:09:75:93:2e:67:a0:67:db:74:b8:54:04:b3:d1:
         77:56:18:31:88:7f:ff:85:a8:0c:8c:48:cc:33:9c:c4:08:fc:
         97:40:28:07:0f:56:b4:2f:08:e9:5a:fe:02:bf:7e:fd:34:6d:
         fa:69:c3:78:1b:a7:1c:ea:69:53:80:32:17:dd:e4:ab:2f:5a:
         fc:b2:f9:eb:65:0f:c0:04:40:dc:c2:a5:33:21:3b:69:2f:2c:
         72:90:98:4f:49:93:cf:41:16:3f:a6:54:d1:f8:8c:fa:ea:08:
         82:c9:f0:3b:0b:e8:02:e5:93:b0:d2:2f:4f:0d:ee:38:cf:33:
         44:74:4f:8d:de:0b:bb:23:1b:4f:d8:81:27:df:fc:a5:61:75:
         7b:9f:ff:50:09:0f:03:b1:cd:d4:f2:fd:e4:24:11:ac:f7:12:
         0d:35:8a:04:70:b7:90:16:05:22:7c:8d:10:b7:6d:a4:0f:fe:
         db:8d:56:28:71:46:bf:28:ce:2e:97:21:c5:42:e4:95:bb:ed:
         aa:0e:e4:6a:8e:7c:59:c2:9b:f2:56:c9:8f:69:85:8c:0c:0d:
         6b:77:ea:8d:52:4d:96:06:5b:de:68:f2:54:e8:c2:e0:07:21:
         e6:00:b3:be:5b:7e:89:78:74:b1:83:19:9b:0e:e3:6e:37:27:
         8c:e7:6c:d4:b0:07:2c:2c:5e:9a:db:c0:7b:28:1f:cb:83:71:
         9e:80:6b:e3:6d:48:c7:13
-----BEGIN CERTIFICATE-----
MIIGDjCCA/agAwIBAgIBBzANBgkqhkiG9w0BAQUFADBJMQswCQYDVQQGEwJHQjEQ
MA4GA1UEChMHSG9zdDRnZTETMBEGA1UEAxMKSG9zdDRnZSBDQTETMBEGA1UEKRMK
SG9zdDRnZSBDQTAeFw0xMjA4MDkyMjQ5NTZaFw0yMjA4MDcyMjQ5NTZaMFAxCzAJ
BgNVBAYTAkdCMRAwDgYDVQQKEwdIb3N0NGdlMQ0wCwYDVQQDEwR2bTIxMSAwHgYJ
KoZIhvcNAQkBFhFhZG1pbkBob3N0NGdlLmNvbTCCAiIwDQYJKoZIhvcNAQEBBQAD
ggIPADCCAgoCggIBALstmju4h4Gl9tsMHI7/eRhlUxdEBnZ7hQ/57HAnisKzkosw
XIn5IaW0XyZ0fVftgNuA3pXChYbePm2E67cGjbuK6SeHfO2jc90sndxDDQAoAbgN
IhEamki0p92PCfU8fBb6tBH8NObZ/O8+9Sq0UZX7+tQfGeZ7iYWMZLN5NZIQxxXf
pbYL9uOh6UE5cLuz9UeGEClWIM4W0KflGnqqwJ1A8LNvErcoLfDl1dt9ZtkSICue
jBobaGT2BG0oKLFqXq0gZFSsSM+UJccQNXb9/EmyCjG1vxNV17DJbLvEvxuB1hXP
Stfbzv7YgufcojXPvuxZueAqv30kSQmKGqkHQYFmULLWhFG3jQ3llH3MGGbYxtJC
mRnGHMpoZC+weIKM4AUdCEypVk5NQfsoNob20Cr5LAele5OTg7JOUzR2K6URe2gE
P/z4aZE4LhZnaZPtjEeJ0hF4t+Uu0IawPKr4I/rfoRhzOdrY1w4OqKBbbffLkJIN
RuBqrQKCSj9w+m4Gx+K43hkIpMjISUM+tNymiPkgNWVjUL45apUJU65Q109/oa5X
BpAwGPAVg9cLLGd5P7UXwRDq07tues1Ek/y9uxv1wqLtxr01EYUf7GrPhU8spJok
BD0mDxgrBV5yFchHXoAd3SmjyPhjZml8yOpZsxZbEG/mJ61A9oV08qIWJZoJAgMB
AAGjgfkwgfYwCQYDVR0TBAIwADAtBglghkgBhvhCAQ0EIBYeRWFzeS1SU0EgR2Vu
ZXJhdGVkIENlcnRpZmljYXRlMB0GA1UdDgQWBBSyneK0zjyrlnMEHC0b0ZZqXaqx
BDB5BgNVHSMEcjBwgBQgxOShLbfum+LFyO8MQ62q1996b6FNpEswSTELMAkGA1UE
BhMCR0IxEDAOBgNVBAoTB0hvc3Q0Z2UxEzARBgNVBAMTCkhvc3Q0Z2UgQ0ExEzAR
BgNVBCkTCkhvc3Q0Z2UgQ0GCCQCBfp3gS7LvqjATBgNVHSUEDDAKBggrBgEFBQcD
AjALBgNVHQ8EBAMCB4AwDQYJKoZIhvcNAQEFBQADggIBAAzqe/JINu/8+HWOmACT
i7O0xMX0aOeaxevRmjD3Ry0k4XAc/vHOUgWVypoSsmi7vvg9tFt+2jO/0oTJPkLO
IGwKrIFGBA+3uqgVYKpz16kQJafL0Nio/Q6mQxMCvvht1479DshABXoJyRoj+UWu
IK8k1jKZRWLG5Jv9FHLxne0iw8+QPlvrQ1Mytdsb6JzBTP/WLmudQtYZ+z8etWwS
UeBbiwE5M/+0JuPkChtltfeFATAWdDbZLT8l3xIEmk5Aa1L8oYbGP7dAQIFawOoa
Z7y4xI3k6UGukRWzdTTKqB6kyMXWUszNBn/cDZu2hUIJdZMuZ6Bn23S4VASz0XdW
GDGIf/+FqAyMSMwznMQI/JdAKAcPVrQvCOla/gK/fv00bfppw3gbpxzqaVOAMhfd
5KsvWvyy+etlD8AEQNzCpTMhO2kvLHKQmE9Jk89BFj+mVNH4jPrqCILJ8DsL6ALl
k7DSL08N7jjPM0R0T43eC7sjG0/YgSff/KVhdXuf/1AJDwOxzdTy/eQkEaz3Eg01
igRwt5AWBSJ8jRC3baQP/tuNVihxRr8ozi6XIcVC5JW77aoO5GqOfFnCm/JWyY9p
hYwMDWt36o1STZYGW95o8lTowuAHIeYAs75bfol4dLGDGZsO4243J4znbNSwByws
XprbwHsoH8uDcZ6Aa+NtSMcT
-----END CERTIFICATE-----
