Certificate:
    Data:
        Version: 3 (0x2)
        Serial Number: 8 (0x8)
    Signature Algorithm: sha1WithRSAEncryption
        Issuer: C=GB, O=Host4ge, CN=Host4ge CA/name=Host4ge CA
        Validity
            Not Before: Aug  9 22:50:01 2012 GMT
            Not After : Aug  7 22:50:01 2022 GMT
        Subject: C=GB, O=Host4ge, CN=vm22/emailAddress=admin@host4ge.com
        Subject Public Key Info:
            Public Key Algorithm: rsaEncryption
                Public-Key: (4096 bit)
                Modulus:
                    00:e1:6d:e0:a3:24:e5:c5:a6:41:02:b9:3d:02:4b:
                    a8:a9:41:15:8f:01:ee:12:82:b6:a8:3e:84:9a:22:
                    55:52:d1:a0:f9:5b:66:b9:a1:1f:36:1c:d7:c5:b5:
                    38:c3:b9:88:51:6a:84:c8:a9:4b:cc:5d:e7:a8:33:
                    d0:6b:a2:f0:5a:bb:26:01:e5:6c:fd:92:d4:58:78:
                    4c:4f:52:4c:a6:2a:96:60:a3:c3:1b:69:dc:ca:d1:
                    83:b0:9f:8b:32:14:2a:1b:ca:34:c4:a5:57:3d:d4:
                    ba:67:a6:06:78:61:82:55:29:88:38:3c:0d:91:ca:
                    dc:66:dd:61:a3:d1:b0:e0:5b:51:b7:02:67:b5:17:
                    ac:11:4c:de:ef:f3:2c:97:d5:b4:d2:5a:e5:34:5c:
                    37:80:13:ca:ac:14:b4:73:1b:28:cc:72:77:27:0d:
                    dd:de:6c:ab:a0:18:ae:5d:de:a8:0c:8f:00:a7:13:
                    e7:50:77:89:16:90:5f:75:e0:72:29:cb:d7:cd:a6:
                    ee:e5:19:3a:7d:1d:ee:c8:bd:04:0c:9e:8f:d2:2e:
                    1d:25:dc:b5:0e:09:84:47:4e:5e:08:5a:8a:35:2d:
                    52:4a:b3:fa:0d:54:46:6a:f8:55:0b:cc:da:b5:f0:
                    ad:fc:dc:31:32:9c:3a:a3:19:e1:d5:d5:a4:bd:7d:
                    ad:29:00:9a:77:37:18:5a:b8:b7:cc:e0:ee:44:69:
                    0f:51:f6:15:1e:30:72:ea:31:b8:81:09:6f:2f:62:
                    31:db:96:ad:bf:fd:26:a1:28:df:d7:fb:3c:d8:ee:
                    d6:91:47:eb:d3:c3:66:08:9d:75:5c:6a:5f:72:01:
                    89:7c:55:d3:b3:14:40:f9:2c:89:fc:9e:a2:a7:93:
                    57:6d:07:fe:fe:c5:30:68:04:b3:33:75:ae:5b:04:
                    f0:67:3a:3b:d5:41:00:07:b9:66:b7:00:8e:08:1b:
                    73:aa:69:1c:1e:a3:ed:c4:a6:0a:57:d9:aa:65:6c:
                    e7:6a:9c:24:27:3a:39:09:64:2b:e7:0b:50:18:a9:
                    25:93:6f:83:d5:88:3d:3a:04:77:b4:42:cb:57:c2:
                    75:33:5a:90:7f:7e:55:e0:70:5f:ff:1c:d5:41:13:
                    af:cd:4a:7d:94:35:9d:b5:42:60:51:3e:d0:e3:90:
                    f5:01:2a:d3:dd:56:0d:ef:93:60:92:2b:3d:68:97:
                    56:5e:9f:b9:dd:4f:47:c7:5b:ae:11:cd:ef:5d:d6:
                    c3:b0:12:88:bd:86:54:b0:bc:5a:4e:5d:bd:07:81:
                    61:6b:89:50:ae:7c:4d:23:be:61:ee:8c:c4:08:ae:
                    d9:99:ac:76:7f:03:aa:d1:72:1f:c8:c6:88:c7:bb:
                    d7:90:1d
                Exponent: 65537 (0x10001)
        X509v3 extensions:
            X509v3 Basic Constraints: 
                CA:FALSE
            Netscape Comment: 
                Easy-RSA Generated Certificate
            X509v3 Subject Key Identifier: 
                0B:A7:E1:4E:30:B2:7B:69:80:BC:7D:33:5E:FD:DF:11:CD:13:AF:0B
            X509v3 Authority Key Identifier: 
                keyid:20:C4:E4:A1:2D:B7:EE:9B:E2:C5:C8:EF:0C:43:AD:AA:D7:DF:7A:6F
                DirName:/C=GB/O=Host4ge/CN=Host4ge CA/name=Host4ge CA
                serial:81:7E:9D:E0:4B:B2:EF:AA

            X509v3 Extended Key Usage: 
                TLS Web Client Authentication
            X509v3 Key Usage: 
                Digital Signature
    Signature Algorithm: sha1WithRSAEncryption
         45:d9:95:d0:67:25:7c:8d:c5:8e:21:90:50:37:9e:61:a4:a8:
         07:6a:09:39:45:c2:e2:52:82:b8:dd:2f:91:4d:e2:7c:80:49:
         0f:6e:fc:4d:cb:a3:42:41:fc:35:be:d1:ce:e3:3c:df:47:df:
         fc:95:72:82:5a:0b:93:9f:41:a2:76:d1:bb:17:f0:57:40:b7:
         2e:78:92:aa:20:3f:ff:dd:72:9d:d6:b2:ea:fb:84:45:a2:1b:
         0c:56:95:19:fb:e4:53:93:63:d6:e1:95:2a:25:9b:fe:16:c5:
         1f:b6:66:6d:93:08:2a:28:9b:b4:c1:b5:40:8d:88:e3:02:07:
         3d:30:2f:93:d9:68:16:ff:64:d3:46:dd:40:07:5e:f8:40:9d:
         6f:4d:12:4b:3c:d1:cb:cc:8a:e1:9d:0d:34:71:1d:a0:94:f1:
         b6:01:4b:93:92:5b:c9:1d:65:bb:47:d6:40:20:66:16:a3:ce:
         5a:6b:0d:6b:dc:af:56:d6:92:2b:4e:f8:2e:4e:41:35:ba:01:
         e7:21:54:1f:4f:55:0e:a1:16:97:fc:db:48:28:5f:6e:09:65:
         15:de:eb:c1:75:65:eb:b0:5c:e0:08:75:11:05:af:9a:d9:56:
         00:bb:74:3b:ac:02:80:fe:db:2a:65:68:e2:03:29:f5:e9:41:
         92:2f:6f:04:4e:8b:d8:9c:a5:47:db:11:9b:96:06:8d:f2:0d:
         9e:5e:26:1b:d2:8c:49:3d:df:d3:66:e8:bb:e8:52:09:f9:c6:
         b2:bd:e2:65:73:d3:bf:e4:14:af:5e:80:a0:4a:34:81:40:a7:
         08:00:29:67:1c:ff:28:b4:cd:e3:88:c7:af:16:3e:f2:6d:5d:
         d5:db:23:ff:a7:41:e3:ee:3d:86:9f:25:81:89:c0:1a:43:be:
         23:6c:52:9b:cd:bc:8c:39:44:3b:5e:a0:ed:14:4a:51:b7:b5:
         46:b9:1f:8e:56:87:c1:0b:c1:84:b8:58:7b:15:54:d1:ec:b3:
         ce:c9:35:09:30:a5:3d:1e:a5:bd:e7:2f:fc:38:80:77:01:06:
         41:eb:68:12:15:75:47:36:e1:1e:e3:9c:28:4e:a5:8d:72:ae:
         31:ae:8d:e7:2f:20:27:7d:92:31:6f:9b:13:39:43:a8:be:cb:
         f6:fd:a2:b2:82:55:57:33:65:82:eb:e1:c9:19:1f:db:c9:07:
         c8:2a:9d:9d:c1:aa:c6:2a:21:76:62:12:07:f1:d1:ba:fc:04:
         9e:a3:4a:73:11:9b:36:3d:da:14:a7:cd:86:c1:13:f7:5f:c1:
         18:12:f0:76:72:51:54:f8:3d:aa:78:87:33:fd:f9:28:35:1e:
         b4:95:67:d2:1c:c4:ca:f8
-----BEGIN CERTIFICATE-----
MIIGDjCCA/agAwIBAgIBCDANBgkqhkiG9w0BAQUFADBJMQswCQYDVQQGEwJHQjEQ
MA4GA1UEChMHSG9zdDRnZTETMBEGA1UEAxMKSG9zdDRnZSBDQTETMBEGA1UEKRMK
SG9zdDRnZSBDQTAeFw0xMjA4MDkyMjUwMDFaFw0yMjA4MDcyMjUwMDFaMFAxCzAJ
BgNVBAYTAkdCMRAwDgYDVQQKEwdIb3N0NGdlMQ0wCwYDVQQDEwR2bTIyMSAwHgYJ
KoZIhvcNAQkBFhFhZG1pbkBob3N0NGdlLmNvbTCCAiIwDQYJKoZIhvcNAQEBBQAD
ggIPADCCAgoCggIBAOFt4KMk5cWmQQK5PQJLqKlBFY8B7hKCtqg+hJoiVVLRoPlb
ZrmhHzYc18W1OMO5iFFqhMipS8xd56gz0Gui8Fq7JgHlbP2S1Fh4TE9STKYqlmCj
wxtp3MrRg7CfizIUKhvKNMSlVz3UumemBnhhglUpiDg8DZHK3GbdYaPRsOBbUbcC
Z7UXrBFM3u/zLJfVtNJa5TRcN4ATyqwUtHMbKMxydycN3d5sq6AYrl3eqAyPAKcT
51B3iRaQX3XgcinL182m7uUZOn0d7si9BAyej9IuHSXctQ4JhEdOXghaijUtUkqz
+g1URmr4VQvM2rXwrfzcMTKcOqMZ4dXVpL19rSkAmnc3GFq4t8zg7kRpD1H2FR4w
cuoxuIEJby9iMduWrb/9JqEo39f7PNju1pFH69PDZgiddVxqX3IBiXxV07MUQPks
ifyeoqeTV20H/v7FMGgEszN1rlsE8Gc6O9VBAAe5ZrcAjggbc6ppHB6j7cSmClfZ
qmVs52qcJCc6OQlkK+cLUBipJZNvg9WIPToEd7RCy1fCdTNakH9+VeBwX/8c1UET
r81KfZQ1nbVCYFE+0OOQ9QEq091WDe+TYJIrPWiXVl6fud1PR8dbrhHN713Ww7AS
iL2GVLC8Wk5dvQeBYWuJUK58TSO+Ye6MxAiu2Zmsdn8DqtFyH8jGiMe715AdAgMB
AAGjgfkwgfYwCQYDVR0TBAIwADAtBglghkgBhvhCAQ0EIBYeRWFzeS1SU0EgR2Vu
ZXJhdGVkIENlcnRpZmljYXRlMB0GA1UdDgQWBBQLp+FOMLJ7aYC8fTNe/d8RzROv
CzB5BgNVHSMEcjBwgBQgxOShLbfum+LFyO8MQ62q1996b6FNpEswSTELMAkGA1UE
BhMCR0IxEDAOBgNVBAoTB0hvc3Q0Z2UxEzARBgNVBAMTCkhvc3Q0Z2UgQ0ExEzAR
BgNVBCkTCkhvc3Q0Z2UgQ0GCCQCBfp3gS7LvqjATBgNVHSUEDDAKBggrBgEFBQcD
AjALBgNVHQ8EBAMCB4AwDQYJKoZIhvcNAQEFBQADggIBAEXZldBnJXyNxY4hkFA3
nmGkqAdqCTlFwuJSgrjdL5FN4nyASQ9u/E3Lo0JB/DW+0c7jPN9H3/yVcoJaC5Of
QaJ20bsX8FdAty54kqogP//dcp3Wsur7hEWiGwxWlRn75FOTY9bhlSolm/4WxR+2
Zm2TCCoom7TBtUCNiOMCBz0wL5PZaBb/ZNNG3UAHXvhAnW9NEks80cvMiuGdDTRx
HaCU8bYBS5OSW8kdZbtH1kAgZhajzlprDWvcr1bWkitO+C5OQTW6AechVB9PVQ6h
Fpf820goX24JZRXe68F1ZeuwXOAIdREFr5rZVgC7dDusAoD+2yplaOIDKfXpQZIv
bwROi9icpUfbEZuWBo3yDZ5eJhvSjEk939Nm6LvoUgn5xrK94mVz07/kFK9egKBK
NIFApwgAKWcc/yi0zeOIx68WPvJtXdXbI/+nQePuPYafJYGJwBpDviNsUpvNvIw5
RDteoO0USlG3tUa5H45Wh8ELwYS4WHsVVNHss87JNQkwpT0epb3nL/w4gHcBBkHr
aBIVdUc24R7jnChOpY1yrjGujecvICd9kjFvmxM5Q6i+y/b9orKCVVczZYLr4ckZ
H9vJB8gqnZ3BqsYqIXZiEgfx0br8BJ6jSnMRmzY92hSnzYbBE/dfwRgS8HZyUVT4
Pap4hzP9+Sg1HrSVZ9IcxMr4
-----END CERTIFICATE-----
