Certificate:
    Data:
        Version: 3 (0x2)
        Serial Number: 10 (0xa)
    Signature Algorithm: sha1WithRSAEncryption
        Issuer: C=GB, O=Host4ge, CN=Host4ge CA/name=Host4ge CA
        Validity
            Not Before: Aug  9 22:50:17 2012 GMT
            Not After : Aug  7 22:50:17 2022 GMT
        Subject: C=GB, O=Host4ge, CN=vms2/emailAddress=admin@host4ge.com
        Subject Public Key Info:
            Public Key Algorithm: rsaEncryption
                Public-Key: (4096 bit)
                Modulus:
                    00:a9:67:8b:20:35:a0:43:9d:5a:c4:01:90:8c:bc:
                    db:ee:92:70:82:58:3a:56:14:f4:44:93:70:f6:3f:
                    b0:6e:95:a1:15:c5:85:9b:ab:e6:2c:f5:26:a5:73:
                    65:b9:e7:c6:b3:d1:2d:e9:f8:84:21:96:a0:2b:8b:
                    90:37:86:6c:89:9b:39:85:6a:e1:2c:cb:3d:65:6b:
                    dc:97:7f:81:bc:e0:71:4e:ab:02:02:25:95:56:09:
                    26:76:72:9e:9b:c7:9f:ac:16:1e:3d:c1:51:12:52:
                    ef:0b:0e:8e:83:e1:32:7d:9d:79:e8:89:c7:f3:80:
                    8e:b7:17:86:fc:c6:0f:12:2d:ad:03:6c:5b:42:02:
                    b8:e7:77:f6:1d:59:db:25:ad:ec:f3:a9:dd:eb:af:
                    be:38:9f:b2:f1:8d:2b:1f:db:57:d5:57:4e:6c:61:
                    a3:74:f0:58:0f:5b:15:75:09:2b:dc:c9:8c:58:3d:
                    b9:2c:62:14:43:a9:cf:23:92:cc:80:5c:0c:f6:70:
                    99:ff:ad:be:38:61:e8:0c:a1:78:86:86:86:69:59:
                    16:6e:c1:ae:8b:9f:d2:b6:17:c7:e4:4d:eb:22:e5:
                    69:ef:79:db:39:8f:08:b4:2e:d6:15:ed:44:d5:79:
                    f9:b4:f0:91:e3:f6:80:0c:4a:c3:96:c6:e0:62:ca:
                    ce:da:9c:39:ad:49:26:94:8a:52:c5:0d:17:82:66:
                    4e:54:fb:e6:9b:22:aa:81:17:75:a9:dd:0d:ce:8a:
                    65:03:a5:d3:79:ab:69:b7:fd:eb:37:e0:82:88:43:
                    37:5a:07:6b:74:da:81:b9:be:ff:ec:e4:ce:32:28:
                    09:af:a3:de:e5:94:27:4b:24:d9:66:d2:2a:87:bf:
                    f2:7a:4b:bc:87:77:a0:89:4d:57:94:4c:61:53:41:
                    fa:3c:8e:fc:9e:22:72:e1:40:68:cb:b6:07:66:be:
                    5c:e7:f8:e8:27:a0:7c:7d:01:04:bc:a0:96:38:80:
                    cc:a0:70:67:53:f9:ec:df:6c:b7:04:f2:a4:4b:fa:
                    fe:fe:90:ad:3f:32:6c:e6:ab:fd:11:a5:c2:13:83:
                    fe:9f:09:68:20:df:9e:d9:c7:68:63:17:4e:a2:68:
                    97:ab:b2:52:b9:28:ba:2f:10:b2:61:a0:e8:23:ca:
                    ce:f6:f6:f8:7f:c0:a8:87:f7:28:87:02:e8:58:60:
                    9e:e6:54:68:1c:6f:f0:62:ff:1a:69:88:a0:ae:5e:
                    0c:6f:a3:49:9c:b6:ad:28:93:c9:38:40:62:1f:45:
                    ae:e7:8d:b3:c9:f8:31:05:b6:af:4a:27:7b:f9:1a:
                    88:f3:73:0d:0f:a6:9a:e9:2d:52:60:1d:f2:13:99:
                    a7:33:51
                Exponent: 65537 (0x10001)
        X509v3 extensions:
            X509v3 Basic Constraints: 
                CA:FALSE
            Netscape Comment: 
                Easy-RSA Generated Certificate
            X509v3 Subject Key Identifier: 
                1F:84:CD:FE:6D:19:04:9B:07:F7:0A:2B:8E:A2:B5:BF:83:C8:AD:07
            X509v3 Authority Key Identifier: 
                keyid:20:C4:E4:A1:2D:B7:EE:9B:E2:C5:C8:EF:0C:43:AD:AA:D7:DF:7A:6F
                DirName:/C=GB/O=Host4ge/CN=Host4ge CA/name=Host4ge CA
                serial:81:7E:9D:E0:4B:B2:EF:AA

            X509v3 Extended Key Usage: 
                TLS Web Client Authentication
            X509v3 Key Usage: 
                Digital Signature
    Signature Algorithm: sha1WithRSAEncryption
         2a:82:5e:bd:bb:29:68:92:7e:b7:54:99:ce:89:f2:6f:53:f9:
         64:70:7f:ec:45:12:fd:8e:80:9b:37:f8:46:50:dd:87:c7:cd:
         7a:1c:70:6a:3e:40:fd:03:43:10:05:2e:10:d9:9d:d9:89:01:
         7d:8b:3e:78:30:a0:4f:20:0b:e4:2d:e3:f5:95:43:46:65:58:
         05:aa:99:a0:1d:a0:e7:31:97:c1:1c:8e:3f:31:7f:42:d8:ca:
         1b:11:4f:1e:c7:7e:2d:f5:8f:ad:b9:57:a4:52:63:93:3b:00:
         29:84:d7:9d:d2:49:e4:6f:54:d2:43:d7:65:14:b1:d5:2c:ba:
         66:09:36:84:6b:32:90:0e:5f:42:3a:98:8d:94:16:f5:65:94:
         67:90:11:bc:fb:74:fa:b9:65:9e:0b:27:bc:37:96:1d:e9:1b:
         70:ca:9a:0c:45:c4:63:fe:36:fd:f6:4e:2d:be:27:db:77:86:
         69:1a:c4:9a:67:1e:43:fe:e0:27:8e:49:dd:e2:5a:ea:bd:98:
         44:f2:f2:ce:5b:71:02:40:f0:4e:79:86:29:81:1b:4c:62:51:
         1c:c7:b9:fe:d4:0d:79:73:6e:8b:b0:bf:34:1e:53:fc:73:1b:
         5c:90:29:81:f2:cd:42:26:aa:88:9d:cb:cf:47:51:eb:47:d6:
         44:10:82:88:12:62:43:f6:dd:3f:e7:e9:f4:64:b3:b7:49:f2:
         e8:ff:1d:f0:17:60:f9:13:23:83:2a:0e:ce:dc:b8:83:38:d9:
         14:df:a6:68:b6:7e:75:05:18:83:e3:6d:1a:63:e2:2a:86:61:
         5a:15:92:28:ed:6a:b1:53:06:21:df:50:5c:a2:e4:a3:12:b6:
         5a:fd:2a:61:9d:cd:45:89:99:a4:03:a5:79:fc:f0:64:b2:85:
         71:15:1b:3d:6b:ba:f4:10:7e:ce:1b:6d:06:29:ee:2d:b0:8e:
         7b:a2:58:de:6f:e2:70:d8:2c:8f:cd:79:43:cf:bd:2b:ce:e4:
         2e:58:5b:83:24:74:6a:e0:38:f5:40:55:0a:d9:73:45:10:33:
         dc:4a:3f:6f:f7:54:ea:29:48:9e:db:5a:58:83:a3:2d:e2:24:
         16:2d:cc:5b:a5:1f:77:d5:49:4d:e3:d0:a8:bf:04:84:c0:9c:
         0e:30:d9:38:36:c8:d5:bf:fc:62:57:9d:0f:3e:05:21:b0:77:
         5e:ec:85:b4:cf:1d:b2:f3:a1:48:80:24:23:68:f5:59:37:f3:
         47:7c:f3:d7:20:69:63:23:42:93:ad:fd:be:4b:b0:da:b5:7b:
         e8:d9:98:11:c9:ee:1d:92:a2:67:86:39:c2:1e:85:ce:13:bc:
         ee:82:9f:75:ac:38:1f:db
-----BEGIN CERTIFICATE-----
MIIGDjCCA/agAwIBAgIBCjANBgkqhkiG9w0BAQUFADBJMQswCQYDVQQGEwJHQjEQ
MA4GA1UEChMHSG9zdDRnZTETMBEGA1UEAxMKSG9zdDRnZSBDQTETMBEGA1UEKRMK
SG9zdDRnZSBDQTAeFw0xMjA4MDkyMjUwMTdaFw0yMjA4MDcyMjUwMTdaMFAxCzAJ
BgNVBAYTAkdCMRAwDgYDVQQKEwdIb3N0NGdlMQ0wCwYDVQQDEwR2bXMyMSAwHgYJ
KoZIhvcNAQkBFhFhZG1pbkBob3N0NGdlLmNvbTCCAiIwDQYJKoZIhvcNAQEBBQAD
ggIPADCCAgoCggIBAKlniyA1oEOdWsQBkIy82+6ScIJYOlYU9ESTcPY/sG6VoRXF
hZur5iz1JqVzZbnnxrPRLen4hCGWoCuLkDeGbImbOYVq4SzLPWVr3Jd/gbzgcU6r
AgIllVYJJnZynpvHn6wWHj3BURJS7wsOjoPhMn2deeiJx/OAjrcXhvzGDxItrQNs
W0ICuOd39h1Z2yWt7POp3euvvjifsvGNKx/bV9VXTmxho3TwWA9bFXUJK9zJjFg9
uSxiFEOpzyOSzIBcDPZwmf+tvjhh6AyheIaGhmlZFm7Brouf0rYXx+RN6yLlae95
2zmPCLQu1hXtRNV5+bTwkeP2gAxKw5bG4GLKztqcOa1JJpSKUsUNF4JmTlT75psi
qoEXdandDc6KZQOl03mrabf96zfggohDN1oHa3Tagbm+/+zkzjIoCa+j3uWUJ0sk
2WbSKoe/8npLvId3oIlNV5RMYVNB+jyO/J4icuFAaMu2B2a+XOf46CegfH0BBLyg
ljiAzKBwZ1P57N9stwTypEv6/v6QrT8ybOar/RGlwhOD/p8JaCDfntnHaGMXTqJo
l6uyUrkoui8QsmGg6CPKzvb2+H/AqIf3KIcC6FhgnuZUaBxv8GL/GmmIoK5eDG+j
SZy2rSiTyThAYh9FrueNs8n4MQW2r0one/kaiPNzDQ+mmuktUmAd8hOZpzNRAgMB
AAGjgfkwgfYwCQYDVR0TBAIwADAtBglghkgBhvhCAQ0EIBYeRWFzeS1SU0EgR2Vu
ZXJhdGVkIENlcnRpZmljYXRlMB0GA1UdDgQWBBQfhM3+bRkEmwf3CiuOorW/g8it
BzB5BgNVHSMEcjBwgBQgxOShLbfum+LFyO8MQ62q1996b6FNpEswSTELMAkGA1UE
BhMCR0IxEDAOBgNVBAoTB0hvc3Q0Z2UxEzARBgNVBAMTCkhvc3Q0Z2UgQ0ExEzAR
BgNVBCkTCkhvc3Q0Z2UgQ0GCCQCBfp3gS7LvqjATBgNVHSUEDDAKBggrBgEFBQcD
AjALBgNVHQ8EBAMCB4AwDQYJKoZIhvcNAQEFBQADggIBACqCXr27KWiSfrdUmc6J
8m9T+WRwf+xFEv2OgJs3+EZQ3YfHzXoccGo+QP0DQxAFLhDZndmJAX2LPngwoE8g
C+Qt4/WVQ0ZlWAWqmaAdoOcxl8Ecjj8xf0LYyhsRTx7Hfi31j625V6RSY5M7ACmE
153SSeRvVNJD12UUsdUsumYJNoRrMpAOX0I6mI2UFvVllGeQEbz7dPq5ZZ4LJ7w3
lh3pG3DKmgxFxGP+Nv32Ti2+J9t3hmkaxJpnHkP+4CeOSd3iWuq9mETy8s5bcQJA
8E55himBG0xiURzHuf7UDXlzbouwvzQeU/xzG1yQKYHyzUImqoidy89HUetH1kQQ
gogSYkP23T/n6fRks7dJ8uj/HfAXYPkTI4MqDs7cuIM42RTfpmi2fnUFGIPjbRpj
4iqGYVoVkijtarFTBiHfUFyi5KMStlr9KmGdzUWJmaQDpXn88GSyhXEVGz1ruvQQ
fs4bbQYp7i2wjnuiWN5v4nDYLI/NeUPPvSvO5C5YW4MkdGrgOPVAVQrZc0UQM9xK
P2/3VOopSJ7bWliDoy3iJBYtzFulH3fVSU3j0Ki/BITAnA4w2Tg2yNW//GJXnQ8+
BSGwd17shbTPHbLzoUiAJCNo9Vk380d889cgaWMjQpOt/b5LsNq1e+jZmBHJ7h2S
omeGOcIehc4TvO6Cn3WsOB/b
-----END CERTIFICATE-----
