Certificate:
    Data:
        Version: 3 (0x2)
        Serial Number: 4 (0x4)
    Signature Algorithm: sha1WithRSAEncryption
        Issuer: C=GB, O=Host4ge, CN=Host4ge CA/name=Host4ge CA
        Validity
            Not Before: Aug  9 22:49:31 2012 GMT
            Not After : Aug  7 22:49:31 2022 GMT
        Subject: C=GB, O=Host4ge, CN=vm13/emailAddress=admin@host4ge.com
        Subject Public Key Info:
            Public Key Algorithm: rsaEncryption
                Public-Key: (4096 bit)
                Modulus:
                    00:d0:ea:75:17:65:7f:fd:be:76:b2:fb:c5:4e:93:
                    64:aa:2a:b2:62:90:bd:bb:c9:73:64:1f:b6:65:a4:
                    6b:00:fb:0a:4f:0b:3f:49:17:5e:89:7a:04:93:fa:
                    fb:6b:21:6a:33:ec:1d:fc:52:96:ab:43:f4:ca:22:
                    4f:6a:32:ab:51:9d:90:48:69:9b:4e:d1:ba:9c:5a:
                    eb:4b:22:c4:4d:e7:81:d6:f2:ac:8c:a5:e7:0d:68:
                    00:92:79:28:20:7c:e0:41:dc:34:c5:48:14:c6:22:
                    63:01:72:a3:35:fc:da:d4:4a:f1:72:41:09:48:7b:
                    a9:f4:a1:49:ce:d9:a1:17:3c:e4:53:a0:f2:cf:2e:
                    70:79:d8:d2:bc:b5:d9:ae:c0:a9:90:67:36:af:e6:
                    72:8d:e5:46:b7:11:f2:dd:72:1c:50:54:00:38:b3:
                    d1:ce:5c:61:99:e6:61:70:ac:5e:9c:d1:a9:46:0b:
                    71:49:32:94:0a:be:ca:29:c3:43:9c:05:bd:87:e1:
                    b5:9f:04:d8:94:ad:29:1d:54:78:a0:14:4d:93:88:
                    be:44:df:4b:23:da:e8:bf:41:1c:c0:da:45:62:1b:
                    7a:0b:e3:83:8a:b4:35:a2:22:8e:c3:4e:1f:cc:34:
                    c9:5b:6b:8b:51:d1:93:52:ce:dc:dc:2c:40:57:e4:
                    09:d3:36:46:76:ab:2f:37:3f:d6:32:3d:ac:61:fe:
                    7f:d4:d2:28:7b:9c:94:fd:31:4d:2c:e3:30:58:73:
                    78:b5:df:26:73:41:94:9b:a6:fd:72:ad:ec:67:98:
                    7c:d2:68:f8:d3:d4:76:8e:82:80:35:d3:8f:eb:00:
                    ca:fe:50:f8:34:fc:85:74:86:78:7e:27:c8:65:49:
                    ee:a4:4d:07:47:4a:fa:f9:91:34:92:35:2d:d8:c1:
                    0f:d4:22:d0:6e:5b:ef:40:c4:c5:ba:9a:a9:e3:05:
                    7f:19:c6:6f:6c:5f:96:cd:c4:6c:63:04:77:60:46:
                    4b:f9:a9:bb:2f:e7:36:79:1a:80:b5:ca:df:a4:20:
                    49:4d:21:eb:55:a7:7a:31:86:09:0a:3e:18:8c:a3:
                    dc:e4:b3:bf:81:09:7f:76:79:1f:60:2b:1c:58:dc:
                    f8:66:56:37:f8:58:3d:38:3a:f0:cf:88:d2:eb:e1:
                    c8:b4:cd:5e:77:90:9b:77:ad:9b:ed:fa:53:45:bc:
                    9d:6c:21:21:78:0b:ab:7d:01:ad:a7:c6:b6:53:2c:
                    c8:66:c6:a3:e5:cc:d5:1a:14:4e:ee:64:b5:c7:e2:
                    2b:1f:fe:70:5d:f4:36:63:82:c6:ec:0e:f4:38:42:
                    68:2b:07:18:95:8e:25:7b:d1:1d:82:47:96:d7:74:
                    64:69:4b
                Exponent: 65537 (0x10001)
        X509v3 extensions:
            X509v3 Basic Constraints: 
                CA:FALSE
            Netscape Comment: 
                Easy-RSA Generated Certificate
            X509v3 Subject Key Identifier: 
                84:D9:3F:4B:CA:F7:3C:65:9F:77:FB:28:68:D9:F8:AD:09:9C:0D:92
            X509v3 Authority Key Identifier: 
                keyid:20:C4:E4:A1:2D:B7:EE:9B:E2:C5:C8:EF:0C:43:AD:AA:D7:DF:7A:6F
                DirName:/C=GB/O=Host4ge/CN=Host4ge CA/name=Host4ge CA
                serial:81:7E:9D:E0:4B:B2:EF:AA

            X509v3 Extended Key Usage: 
                TLS Web Client Authentication
            X509v3 Key Usage: 
                Digital Signature
    Signature Algorithm: sha1WithRSAEncryption
         d0:27:44:4e:18:31:53:88:31:c7:57:ae:b8:cd:5f:9a:21:5e:
         f4:70:e1:1e:71:22:3e:54:b5:08:09:97:d4:b0:21:3e:74:91:
         3e:49:62:1e:69:d1:16:d3:a6:29:34:77:3c:b4:8a:a9:08:56:
         dc:b3:9d:5f:53:50:8e:a3:be:e0:b6:36:99:ab:1d:95:c9:a7:
         55:a8:2d:41:d2:f1:83:55:1a:70:f5:f5:6e:4a:56:58:29:ce:
         fb:2d:e6:e2:42:18:5c:68:87:8b:ab:ce:f5:28:3f:74:1d:0f:
         e1:33:d9:7f:2a:a8:20:f4:3b:73:08:43:65:c6:22:f2:22:a5:
         d2:f1:d1:e4:2a:bb:f6:57:34:71:be:18:a4:7e:44:01:a9:2a:
         63:f9:08:98:b2:35:3d:2c:da:7b:7a:c1:04:7c:8b:82:3d:a3:
         f5:a7:68:63:cb:d0:98:05:82:88:f8:41:96:47:cf:9c:c4:a8:
         57:f2:ab:5a:ec:c1:08:00:58:95:75:b5:bc:f1:05:bd:d4:1b:
         bf:c5:34:b8:e8:a5:81:5a:4b:22:82:eb:2e:99:43:77:e9:95:
         0c:e5:d1:b5:ab:c4:c5:b9:49:4d:22:f7:41:34:f0:18:c2:a4:
         84:01:55:2d:19:97:ed:64:63:9b:5e:cc:3f:d4:cc:2e:b4:57:
         c3:cb:bd:04:f3:4e:68:0b:bd:ca:fc:87:ad:1a:7f:5f:38:bb:
         62:53:9d:89:9d:ee:65:2e:28:a4:ee:e4:eb:bd:93:4f:5f:c2:
         52:29:db:bf:06:df:73:54:0d:b6:18:ca:30:e4:43:78:d2:0d:
         34:0c:17:3f:79:30:53:ef:9b:cb:a5:31:e0:1e:b6:f4:49:ad:
         1f:81:3b:ad:01:f1:da:e0:d4:9c:20:51:3f:0e:35:5b:d1:18:
         81:99:60:33:cb:c8:a5:63:d9:53:a4:77:bf:e2:9f:a9:bf:9a:
         bf:bf:d9:5b:33:6a:57:0c:94:20:f3:8d:2c:9a:a2:70:b7:a0:
         33:68:9f:9b:50:74:5a:01:cd:06:af:00:00:d7:42:19:7d:6f:
         13:d8:8a:b5:a4:71:f6:4c:d1:3c:bb:ba:b8:20:8d:67:92:33:
         73:0d:d4:87:b1:9a:e1:e7:a0:fa:ba:78:c2:40:4d:ef:50:f0:
         71:63:5c:56:1e:f3:b4:cf:9f:1d:fd:61:b0:02:00:17:80:c6:
         df:4c:1c:44:6f:22:06:ac:17:da:a8:9c:05:c2:16:3a:a6:ac:
         e3:f4:98:e7:93:3f:b4:a7:f3:09:bf:0d:18:6d:87:13:7b:29:
         ec:37:44:d0:1b:b8:e1:37:5c:9d:e0:f3:c6:9d:80:3c:e5:db:
         f0:81:a4:8a:b0:b5:4d:5d
-----BEGIN CERTIFICATE-----
MIIGDjCCA/agAwIBAgIBBDANBgkqhkiG9w0BAQUFADBJMQswCQYDVQQGEwJHQjEQ
MA4GA1UEChMHSG9zdDRnZTETMBEGA1UEAxMKSG9zdDRnZSBDQTETMBEGA1UEKRMK
SG9zdDRnZSBDQTAeFw0xMjA4MDkyMjQ5MzFaFw0yMjA4MDcyMjQ5MzFaMFAxCzAJ
BgNVBAYTAkdCMRAwDgYDVQQKEwdIb3N0NGdlMQ0wCwYDVQQDEwR2bTEzMSAwHgYJ
KoZIhvcNAQkBFhFhZG1pbkBob3N0NGdlLmNvbTCCAiIwDQYJKoZIhvcNAQEBBQAD
ggIPADCCAgoCggIBANDqdRdlf/2+drL7xU6TZKoqsmKQvbvJc2QftmWkawD7Ck8L
P0kXXol6BJP6+2shajPsHfxSlqtD9MoiT2oyq1GdkEhpm07Rupxa60sixE3ngdby
rIyl5w1oAJJ5KCB84EHcNMVIFMYiYwFyozX82tRK8XJBCUh7qfShSc7ZoRc85FOg
8s8ucHnY0ry12a7AqZBnNq/mco3lRrcR8t1yHFBUADiz0c5cYZnmYXCsXpzRqUYL
cUkylAq+yinDQ5wFvYfhtZ8E2JStKR1UeKAUTZOIvkTfSyPa6L9BHMDaRWIbegvj
g4q0NaIijsNOH8w0yVtri1HRk1LO3NwsQFfkCdM2RnarLzc/1jI9rGH+f9TSKHuc
lP0xTSzjMFhzeLXfJnNBlJum/XKt7GeYfNJo+NPUdo6CgDXTj+sAyv5Q+DT8hXSG
eH4nyGVJ7qRNB0dK+vmRNJI1LdjBD9Qi0G5b70DExbqaqeMFfxnGb2xfls3EbGME
d2BGS/mpuy/nNnkagLXK36QgSU0h61WnejGGCQo+GIyj3OSzv4EJf3Z5H2ArHFjc
+GZWN/hYPTg68M+I0uvhyLTNXneQm3etm+36U0W8nWwhIXgLq30BrafGtlMsyGbG
o+XM1RoUTu5ktcfiKx/+cF30NmOCxuwO9DhCaCsHGJWOJXvRHYJHltd0ZGlLAgMB
AAGjgfkwgfYwCQYDVR0TBAIwADAtBglghkgBhvhCAQ0EIBYeRWFzeS1SU0EgR2Vu
ZXJhdGVkIENlcnRpZmljYXRlMB0GA1UdDgQWBBSE2T9Lyvc8ZZ93+yho2fitCZwN
kjB5BgNVHSMEcjBwgBQgxOShLbfum+LFyO8MQ62q1996b6FNpEswSTELMAkGA1UE
BhMCR0IxEDAOBgNVBAoTB0hvc3Q0Z2UxEzARBgNVBAMTCkhvc3Q0Z2UgQ0ExEzAR
BgNVBCkTCkhvc3Q0Z2UgQ0GCCQCBfp3gS7LvqjATBgNVHSUEDDAKBggrBgEFBQcD
AjALBgNVHQ8EBAMCB4AwDQYJKoZIhvcNAQEFBQADggIBANAnRE4YMVOIMcdXrrjN
X5ohXvRw4R5xIj5UtQgJl9SwIT50kT5JYh5p0RbTpik0dzy0iqkIVtyznV9TUI6j
vuC2NpmrHZXJp1WoLUHS8YNVGnD19W5KVlgpzvst5uJCGFxoh4urzvUoP3QdD+Ez
2X8qqCD0O3MIQ2XGIvIipdLx0eQqu/ZXNHG+GKR+RAGpKmP5CJiyNT0s2nt6wQR8
i4I9o/WnaGPL0JgFgoj4QZZHz5zEqFfyq1rswQgAWJV1tbzxBb3UG7/FNLjopYFa
SyKC6y6ZQ3fplQzl0bWrxMW5SU0i90E08BjCpIQBVS0Zl+1kY5tezD/UzC60V8PL
vQTzTmgLvcr8h60af184u2JTnYmd7mUuKKTu5Ou9k09fwlIp278G33NUDbYYyjDk
Q3jSDTQMFz95MFPvm8ulMeAetvRJrR+BO60B8drg1JwgUT8ONVvRGIGZYDPLyKVj
2VOkd7/in6m/mr+/2VszalcMlCDzjSyaonC3oDNon5tQdFoBzQavAADXQhl9bxPY
irWkcfZM0Ty7urggjWeSM3MN1IexmuHnoPq6eMJATe9Q8HFjXFYe87TPnx39YbAC
ABeAxt9MHERvIgasF9qonAXCFjqmrOP0mOeTP7Sn8wm/DRhthxN7Kew3RNAbuOE3
XJ3g88adgDzl2/CBpIqwtU1d
-----END CERTIFICATE-----
