Certificate:
    Data:
        Version: 3 (0x2)
        Serial Number: 1 (0x1)
    Signature Algorithm: sha1WithRSAEncryption
        Issuer: C=PL, O=Host4ge, CN=Host4ge CA/name=Host4ge CA
        Validity
            Not Before: Aug 10 08:04:03 2012 GMT
            Not After : Aug  8 08:04:03 2022 GMT
        Subject: C=PL, O=Host4ge, CN=neptune/emailAddress=admin@host4ge.com
        Subject Public Key Info:
            Public Key Algorithm: rsaEncryption
                Public-Key: (4096 bit)
                Modulus:
                    00:9e:6d:7d:3f:1d:fa:01:ea:3f:b4:48:e2:28:fb:
                    56:3d:f4:c2:85:70:8a:19:ee:5f:c9:cc:c3:d5:ef:
                    73:17:28:10:4d:87:59:5c:22:ac:ee:5f:dd:35:f5:
                    4c:cd:0b:e9:f0:05:dc:c3:9f:2d:24:f6:06:b8:11:
                    d3:61:0f:29:d6:bb:32:7c:b5:a2:c4:b0:48:7c:54:
                    27:2f:01:99:04:a9:f7:cc:83:80:28:68:bd:08:c0:
                    14:cc:b9:ee:ae:d2:67:18:9a:96:f5:db:0d:b5:0c:
                    3e:be:f9:07:8f:ca:7f:9f:4c:f9:0c:b5:48:ba:da:
                    d5:94:9d:73:4d:77:b5:32:b2:0b:0e:e1:9b:9e:5f:
                    61:44:55:fa:a1:bc:00:c8:1c:cc:77:ba:0d:69:66:
                    16:0d:58:a6:8f:20:c6:4d:19:5d:d9:fe:d8:7e:64:
                    7f:7e:d5:30:3b:02:84:90:bb:2c:5f:c1:e2:39:bd:
                    44:f9:ac:2a:f2:da:f1:f4:c5:0c:db:34:33:97:d7:
                    8e:d8:a2:23:56:07:a5:30:bd:1c:59:a7:db:b2:60:
                    ed:3c:97:f4:27:f6:3d:94:85:21:e5:43:20:31:e8:
                    a1:94:ac:6a:bb:92:54:43:91:eb:46:d6:75:25:95:
                    d6:8f:7e:1c:bd:11:47:41:b5:b1:9b:72:4a:6f:f6:
                    4e:61:0d:79:af:c2:2b:c2:fb:cc:23:b4:b5:5d:26:
                    21:3f:b1:75:18:b9:bc:8d:a5:a2:ab:7d:2a:42:5a:
                    f4:83:33:5d:df:84:03:99:c6:d4:fb:50:5b:23:f1:
                    1c:9f:18:c5:d8:e9:30:07:c4:73:91:ab:d5:0e:17:
                    02:4d:8c:dd:70:dd:ef:48:db:e1:e7:85:7e:f7:80:
                    03:2d:0c:2b:c8:cd:ec:32:79:ed:75:1b:67:d6:59:
                    ea:5b:f1:24:e7:ba:5d:7e:20:20:2a:e0:d8:dc:57:
                    b3:87:9a:c9:7b:d0:27:c1:a8:a6:b9:4d:4b:8b:ce:
                    53:f7:c3:36:a3:d5:ba:de:c2:52:60:70:ca:b6:b7:
                    78:4e:2a:c5:52:80:f3:77:3c:9d:0e:93:a1:38:60:
                    2d:ce:22:bb:7e:46:d3:f7:aa:21:36:20:ce:c1:5e:
                    ad:be:74:68:10:34:0c:0a:f5:a1:42:bf:5f:8d:7c:
                    6d:57:0f:34:5c:61:08:a7:32:e6:5f:bc:e3:41:22:
                    97:07:75:0f:7c:49:42:64:af:73:07:3a:a7:4d:2d:
                    c7:05:04:e7:b5:1d:0d:bb:b8:c4:3e:33:1c:02:59:
                    8c:32:2c:20:64:2b:80:b8:e6:01:56:ee:98:ca:64:
                    d0:f9:76:4d:07:a2:d3:86:31:2a:f2:50:b4:18:ac:
                    ff:54:6d
                Exponent: 65537 (0x10001)
        X509v3 extensions:
            X509v3 Basic Constraints: 
                CA:FALSE
            Netscape Cert Type: 
                SSL Server
            Netscape Comment: 
                Easy-RSA Generated Server Certificate
            X509v3 Subject Key Identifier: 
                FD:B7:FE:A2:99:CF:F4:C3:3A:8C:18:CD:2F:15:5F:6C:1D:CD:56:3D
            X509v3 Authority Key Identifier: 
                keyid:7B:87:A2:8D:BA:3F:89:FB:95:A4:73:57:EC:A2:AF:18:9E:C9:A3:26
                DirName:/C=PL/O=Host4ge/CN=Host4ge CA/name=Host4ge CA
                serial:BF:C9:28:34:1E:FA:E0:62

            X509v3 Extended Key Usage: 
                TLS Web Server Authentication
            X509v3 Key Usage: 
                Digital Signature, Key Encipherment
    Signature Algorithm: sha1WithRSAEncryption
         7e:fe:40:0f:10:c0:fa:c0:93:5d:af:cd:ed:1d:07:a4:c5:0e:
         17:66:24:ff:6b:06:a7:0f:f1:ff:11:fe:7b:fc:9d:95:d3:13:
         98:9b:5b:8a:8e:0e:76:a1:25:6a:fc:91:73:f8:87:83:40:51:
         d0:85:c7:b8:66:09:74:60:cf:44:84:9e:08:e5:a6:93:2d:d1:
         92:e8:e2:db:3c:77:87:9e:d6:96:9d:33:fc:39:b5:7b:f2:12:
         54:52:0d:24:d0:2a:5e:84:50:e6:13:16:10:73:e3:ea:f0:0d:
         fa:e5:65:c3:61:cf:59:ea:44:1f:06:8c:21:65:e4:c3:cc:b0:
         a9:6b:5d:0f:47:8a:ad:98:19:dc:92:a5:ce:69:d8:a2:9a:fd:
         68:54:1a:b1:3f:46:43:06:0d:10:86:0f:4c:d6:1e:c0:38:bd:
         0a:2f:8a:cd:68:e2:c0:00:ee:e7:fe:d9:15:8c:fc:5b:21:fb:
         4d:21:b2:af:36:9a:9a:ef:53:5f:48:5d:9a:d8:17:8a:1f:05:
         14:ce:c0:d7:aa:5d:d9:7b:44:ab:6f:91:e0:51:79:71:4b:fa:
         ad:c2:5c:fa:94:c7:73:e6:c7:54:36:93:d2:2c:19:8a:b5:01:
         d8:16:64:f4:18:e9:d8:54:3f:ce:4f:04:41:d5:87:89:f6:2c:
         ef:b5:0f:d8:4f:6f:ab:0f:ff:c9:26:fd:ee:6e:65:a6:df:2d:
         4b:e8:b7:6f:05:05:ff:42:8f:7f:df:e4:b8:89:b0:97:a3:c8:
         ad:19:55:b9:eb:b9:82:f9:44:71:7e:33:26:ba:28:f0:ee:28:
         00:97:1e:01:84:b5:e6:7b:47:b2:86:9b:1b:46:65:bc:27:45:
         84:dc:11:9c:70:c2:6b:81:40:94:26:77:7a:33:00:fd:ac:f1:
         17:71:fc:a9:59:a1:e7:7c:9f:e4:aa:23:e0:aa:09:3d:92:a8:
         54:50:39:d8:67:d0:87:ba:d0:d1:eb:e0:75:60:05:96:69:e1:
         e2:6e:87:00:33:6a:7c:df:e5:8a:39:6d:5f:67:d9:a6:24:bd:
         36:a1:20:c8:d9:9b:5b:5d:db:c8:18:4c:3f:81:af:74:d0:ed:
         86:99:30:63:aa:83:41:4e:89:72:a5:19:b7:29:f9:0c:98:8c:
         ad:cd:97:6c:ca:60:f9:e7:50:85:84:0d:1b:9b:dd:36:a0:6e:
         80:02:22:05:f5:52:04:64:30:ec:ac:68:da:3f:12:e6:93:0e:
         2c:e4:39:bb:cb:15:fc:15:a4:3a:b0:8b:e7:f0:50:38:f1:be:
         2d:ea:83:de:ac:50:6a:8b:15:6a:61:c6:cc:2a:cb:5d:1c:97:
         ff:bb:e3:ec:37:30:ec:89
-----BEGIN CERTIFICATE-----
MIIGLTCCBBWgAwIBAgIBATANBgkqhkiG9w0BAQUFADBJMQswCQYDVQQGEwJQTDEQ
MA4GA1UEChMHSG9zdDRnZTETMBEGA1UEAxMKSG9zdDRnZSBDQTETMBEGA1UEKRMK
SG9zdDRnZSBDQTAeFw0xMjA4MTAwODA0MDNaFw0yMjA4MDgwODA0MDNaMFMxCzAJ
BgNVBAYTAlBMMRAwDgYDVQQKEwdIb3N0NGdlMRAwDgYDVQQDEwduZXB0dW5lMSAw
HgYJKoZIhvcNAQkBFhFhZG1pbkBob3N0NGdlLmNvbTCCAiIwDQYJKoZIhvcNAQEB
BQADggIPADCCAgoCggIBAJ5tfT8d+gHqP7RI4ij7Vj30woVwihnuX8nMw9Xvcxco
EE2HWVwirO5f3TX1TM0L6fAF3MOfLST2BrgR02EPKda7Mny1osSwSHxUJy8BmQSp
98yDgChovQjAFMy57q7SZxialvXbDbUMPr75B4/Kf59M+Qy1SLra1ZSdc013tTKy
Cw7hm55fYURV+qG8AMgczHe6DWlmFg1Ypo8gxk0ZXdn+2H5kf37VMDsChJC7LF/B
4jm9RPmsKvLa8fTFDNs0M5fXjtiiI1YHpTC9HFmn27Jg7TyX9Cf2PZSFIeVDIDHo
oZSsaruSVEOR60bWdSWV1o9+HL0RR0G1sZtySm/2TmENea/CK8L7zCO0tV0mIT+x
dRi5vI2loqt9KkJa9IMzXd+EA5nG1PtQWyPxHJ8YxdjpMAfEc5Gr1Q4XAk2M3XDd
70jb4eeFfveAAy0MK8jN7DJ57XUbZ9ZZ6lvxJOe6XX4gICrg2NxXs4eayXvQJ8Go
prlNS4vOU/fDNqPVut7CUmBwyra3eE4qxVKA83c8nQ6ToThgLc4iu35G0/eqITYg
zsFerb50aBA0DAr1oUK/X418bVcPNFxhCKcy5l+840Eilwd1D3xJQmSvcwc6p00t
xwUE57UdDbu4xD4zHAJZjDIsIGQrgLjmAVbumMpk0Pl2TQei04YxKvJQtBis/1Rt
AgMBAAGjggEUMIIBEDAJBgNVHRMEAjAAMBEGCWCGSAGG+EIBAQQEAwIGQDA0Bglg
hkgBhvhCAQ0EJxYlRWFzeS1SU0EgR2VuZXJhdGVkIFNlcnZlciBDZXJ0aWZpY2F0
ZTAdBgNVHQ4EFgQU/bf+opnP9MM6jBjNLxVfbB3NVj0weQYDVR0jBHIwcIAUe4ei
jbo/ifuVpHNX7KKvGJ7JoyahTaRLMEkxCzAJBgNVBAYTAlBMMRAwDgYDVQQKEwdI
b3N0NGdlMRMwEQYDVQQDEwpIb3N0NGdlIENBMRMwEQYDVQQpEwpIb3N0NGdlIENB
ggkAv8koNB764GIwEwYDVR0lBAwwCgYIKwYBBQUHAwEwCwYDVR0PBAQDAgWgMA0G
CSqGSIb3DQEBBQUAA4ICAQB+/kAPEMD6wJNdr83tHQekxQ4XZiT/awanD/H/Ef57
/J2V0xOYm1uKjg52oSVq/JFz+IeDQFHQhce4Zgl0YM9EhJ4I5aaTLdGS6OLbPHeH
ntaWnTP8ObV78hJUUg0k0CpehFDmExYQc+Pq8A365WXDYc9Z6kQfBowhZeTDzLCp
a10PR4qtmBnckqXOadiimv1oVBqxP0ZDBg0Qhg9M1h7AOL0KL4rNaOLAAO7n/tkV
jPxbIftNIbKvNpqa71NfSF2a2BeKHwUUzsDXql3Ze0Srb5HgUXlxS/qtwlz6lMdz
5sdUNpPSLBmKtQHYFmT0GOnYVD/OTwRB1YeJ9izvtQ/YT2+rD//JJv3ubmWm3y1L
6LdvBQX/Qo9/3+S4ibCXo8itGVW567mC+URxfjMmuijw7igAlx4BhLXme0eyhpsb
RmW8J0WE3BGccMJrgUCUJnd6MwD9rPEXcfypWaHnfJ/kqiPgqgk9kqhUUDnYZ9CH
utDR6+B1YAWWaeHibocAM2p83+WKOW1fZ9mmJL02oSDI2ZtbXdvIGEw/ga900O2G
mTBjqoNBTolypRm3KfkMmIytzZdsymD551CFhA0bm902oG6AAiIF9VIEZDDsrGja
PxLmkw4s5Dm7yxX8FaQ6sIvn8FA48b4t6oPerFBqixVqYcbMKstdHJf/u+PsNzDs
iQ==
-----END CERTIFICATE-----
