Certificate:
    Data:
        Version: 3 (0x2)
        Serial Number: 2 (0x2)
    Signature Algorithm: sha1WithRSAEncryption
        Issuer: C=PL, O=Host4ge, CN=Host4ge CA/name=Host4ge CA
        Validity
            Not Before: Aug 10 08:12:29 2012 GMT
            Not After : Aug  8 08:12:29 2022 GMT
        Subject: C=PL, O=Host4ge, CN=earth/emailAddress=admin@host4ge.com
        Subject Public Key Info:
            Public Key Algorithm: rsaEncryption
                Public-Key: (4096 bit)
                Modulus:
                    00:a7:69:fd:cc:68:a8:1d:1d:23:21:b2:e1:ca:12:
                    fe:e7:97:38:37:71:80:e7:95:f8:7b:4c:ab:c0:6f:
                    8f:4e:c4:4d:a9:f1:83:dc:07:ae:13:58:7e:44:38:
                    bc:a1:5a:21:5f:e5:bf:bd:b5:97:2a:99:96:09:b5:
                    19:19:3c:c8:dd:49:d0:e6:e3:45:ed:36:b5:38:30:
                    75:b8:3c:39:c9:ca:87:8b:28:f2:d8:72:0f:7a:6e:
                    2d:a7:7f:79:12:6f:57:de:e0:46:f8:80:19:d4:ef:
                    dd:56:7a:e8:52:c3:f1:fd:96:c6:59:2e:7e:57:6c:
                    9d:a9:11:7e:f8:ad:69:2e:7c:9f:63:b8:99:ca:e1:
                    ba:b2:f2:23:82:be:2f:69:72:0a:e1:d4:42:10:50:
                    db:23:2d:83:ff:18:52:15:42:9e:24:9a:b6:6e:52:
                    94:db:a1:26:83:76:96:33:14:45:d4:ed:11:99:ba:
                    ca:4e:97:a8:fd:88:d5:41:1c:9c:f6:cd:9e:b5:72:
                    e1:b3:61:70:0e:1a:d7:91:70:22:a5:d7:96:e4:be:
                    64:02:fa:b5:47:77:ed:04:83:df:f4:b4:28:49:08:
                    07:df:2b:64:63:25:fc:72:11:0e:ae:ed:f7:3a:69:
                    d5:d8:99:79:3c:00:7b:7a:32:01:c4:5b:db:8a:a6:
                    85:0b:6d:8a:54:d8:f2:d9:bf:b9:c2:a9:5b:53:fd:
                    4e:1f:21:39:f4:83:93:f8:89:e1:ac:cf:a9:7e:dc:
                    69:37:7b:9b:96:ff:02:81:df:aa:91:86:f7:3c:f3:
                    5a:b1:11:da:56:50:34:f8:d3:a0:e7:b9:db:17:05:
                    17:41:d4:ed:22:c2:7b:71:9e:97:d5:86:1a:bf:97:
                    26:b2:5c:41:54:66:9f:5d:bf:50:17:93:6d:14:2d:
                    07:77:d1:7e:8c:40:bd:69:e0:bf:58:8c:bd:a9:90:
                    23:89:f3:68:71:2f:d9:6b:97:88:95:08:b7:d1:92:
                    8b:67:20:ec:10:a9:e3:3b:52:3a:bf:6a:d7:9f:91:
                    1f:8a:5d:85:4c:3d:3c:8f:e4:5d:bd:65:f1:90:ce:
                    f3:75:5c:99:57:da:e7:22:42:28:92:f0:fc:98:41:
                    d9:82:80:66:62:18:c5:7a:d4:4f:11:ec:5a:4a:9c:
                    f4:89:3a:71:b2:ed:f7:1c:e7:48:35:29:3f:eb:dd:
                    cb:99:ad:d2:cd:81:ba:32:25:24:49:36:a1:cb:e5:
                    b5:52:58:cb:5a:44:76:0f:ad:90:47:cf:0f:55:cc:
                    75:b1:33:d4:6e:cd:dd:23:44:dd:e0:01:68:74:6d:
                    a5:35:b1:6a:55:bc:dd:3e:58:1c:3b:ab:2a:9b:fe:
                    20:96:fb
                Exponent: 65537 (0x10001)
        X509v3 extensions:
            X509v3 Basic Constraints: 
                CA:FALSE
            Netscape Comment: 
                Easy-RSA Generated Certificate
            X509v3 Subject Key Identifier: 
                9C:57:D9:0E:CB:D1:BC:2D:09:1A:AE:D0:63:56:36:84:28:12:7F:56
            X509v3 Authority Key Identifier: 
                keyid:7B:87:A2:8D:BA:3F:89:FB:95:A4:73:57:EC:A2:AF:18:9E:C9:A3:26
                DirName:/C=PL/O=Host4ge/CN=Host4ge CA/name=Host4ge CA
                serial:BF:C9:28:34:1E:FA:E0:62

            X509v3 Extended Key Usage: 
                TLS Web Client Authentication
            X509v3 Key Usage: 
                Digital Signature
    Signature Algorithm: sha1WithRSAEncryption
         a4:2b:94:84:1b:e3:99:bf:42:63:ff:0e:3b:77:c2:c5:54:92:
         91:38:26:22:6e:39:aa:28:c8:2a:f3:4c:f2:c6:40:8d:0d:8e:
         20:2e:98:9e:13:56:33:07:a0:03:c4:66:69:f7:a9:ac:e8:ac:
         74:7e:b4:07:d5:a6:90:e7:1a:6c:bb:99:9c:d3:c2:3d:c3:7a:
         db:37:1d:03:ea:8d:a4:98:7d:e5:fa:98:a1:a4:10:af:d9:81:
         12:ff:bc:f8:bb:84:93:55:bf:ee:bb:bd:69:4e:8e:a8:5b:e9:
         1b:57:86:68:80:1b:04:7a:73:17:a2:8b:03:23:fe:27:e9:6f:
         05:81:52:22:17:f6:00:94:3a:0e:ac:79:1e:5a:bc:6b:65:00:
         aa:85:dd:0e:f1:76:c7:7c:6b:a7:8d:65:c3:bf:c8:6d:46:3c:
         b6:b8:5d:7b:6b:55:b3:c8:27:69:ee:0d:79:1d:b9:1e:77:0b:
         ae:40:c2:8e:1f:c5:cd:c4:85:7f:1f:56:66:44:e3:4d:4a:50:
         69:17:86:b9:3a:7c:1f:09:87:82:78:ff:bf:98:08:59:9c:fb:
         60:26:80:4a:09:77:c5:d8:0e:6e:b5:25:0e:39:c1:6b:6e:aa:
         11:b0:69:ae:72:04:3f:3e:66:a6:e8:c6:73:9d:69:c8:65:0f:
         fc:30:c9:6d:a6:fe:25:89:2f:94:ff:2e:5b:b9:e0:5e:9b:95:
         c9:7b:7f:8a:20:24:f2:68:4b:82:82:ac:f9:b7:6d:e8:0a:09:
         d1:b6:22:ef:e4:ae:8a:24:48:ca:b6:e7:1a:31:b0:f1:bc:e1:
         26:6b:33:79:8e:c5:63:a2:62:47:5c:aa:b8:5d:05:fd:e8:f8:
         24:30:7c:3d:c6:a5:55:a8:81:8c:fa:c4:34:5d:b5:40:07:7b:
         f7:a9:cb:15:f0:8d:10:cc:49:c5:77:ca:d7:63:20:07:39:5d:
         de:40:9a:01:0e:af:43:80:3a:8c:c5:77:91:f8:71:db:56:85:
         63:2c:67:ad:e1:04:e6:40:ef:92:0a:88:d5:0d:e1:6a:f8:3d:
         ff:e9:a5:63:d9:45:ac:9c:c8:6e:83:59:51:6c:d8:cf:09:81:
         1f:8a:2e:a8:6a:ff:06:63:34:dc:4d:7e:b1:b0:92:05:cd:59:
         2f:e3:d6:c5:e1:6e:22:f3:30:0a:35:63:a4:5c:42:6a:9d:3a:
         ce:62:ed:39:7f:60:0a:42:d4:35:13:f0:ad:86:e4:8e:ec:cc:
         55:1f:12:2e:65:d2:28:0b:c5:0b:99:fc:a9:3b:6e:96:95:7e:
         d2:bc:09:c0:ae:34:e2:4e:e4:6e:fe:6c:57:89:81:86:07:9a:
         4a:93:5b:8c:6b:e2:2b:6b
-----BEGIN CERTIFICATE-----
MIIGDzCCA/egAwIBAgIBAjANBgkqhkiG9w0BAQUFADBJMQswCQYDVQQGEwJQTDEQ
MA4GA1UEChMHSG9zdDRnZTETMBEGA1UEAxMKSG9zdDRnZSBDQTETMBEGA1UEKRMK
SG9zdDRnZSBDQTAeFw0xMjA4MTAwODEyMjlaFw0yMjA4MDgwODEyMjlaMFExCzAJ
BgNVBAYTAlBMMRAwDgYDVQQKEwdIb3N0NGdlMQ4wDAYDVQQDEwVlYXJ0aDEgMB4G
CSqGSIb3DQEJARYRYWRtaW5AaG9zdDRnZS5jb20wggIiMA0GCSqGSIb3DQEBAQUA
A4ICDwAwggIKAoICAQCnaf3MaKgdHSMhsuHKEv7nlzg3cYDnlfh7TKvAb49OxE2p
8YPcB64TWH5EOLyhWiFf5b+9tZcqmZYJtRkZPMjdSdDm40XtNrU4MHW4PDnJyoeL
KPLYcg96bi2nf3kSb1fe4Eb4gBnU791WeuhSw/H9lsZZLn5XbJ2pEX74rWkufJ9j
uJnK4bqy8iOCvi9pcgrh1EIQUNsjLYP/GFIVQp4kmrZuUpTboSaDdpYzFEXU7RGZ
uspOl6j9iNVBHJz2zZ61cuGzYXAOGteRcCKl15bkvmQC+rVHd+0Eg9/0tChJCAff
K2RjJfxyEQ6u7fc6adXYmXk8AHt6MgHEW9uKpoULbYpU2PLZv7nCqVtT/U4fITn0
g5P4ieGsz6l+3Gk3e5uW/wKB36qRhvc881qxEdpWUDT406DnudsXBRdB1O0iwntx
npfVhhq/lyayXEFUZp9dv1AXk20ULQd30X6MQL1p4L9YjL2pkCOJ82hxL9lrl4iV
CLfRkotnIOwQqeM7Ujq/atefkR+KXYVMPTyP5F29ZfGQzvN1XJlX2uciQiiS8PyY
QdmCgGZiGMV61E8R7FpKnPSJOnGy7fcc50g1KT/r3cuZrdLNgboyJSRJNqHL5bVS
WMtaRHYPrZBHzw9VzHWxM9Ruzd0jRN3gAWh0baU1sWpVvN0+WBw7qyqb/iCW+wID
AQABo4H5MIH2MAkGA1UdEwQCMAAwLQYJYIZIAYb4QgENBCAWHkVhc3ktUlNBIEdl
bmVyYXRlZCBDZXJ0aWZpY2F0ZTAdBgNVHQ4EFgQUnFfZDsvRvC0JGq7QY1Y2hCgS
f1YweQYDVR0jBHIwcIAUe4eijbo/ifuVpHNX7KKvGJ7JoyahTaRLMEkxCzAJBgNV
BAYTAlBMMRAwDgYDVQQKEwdIb3N0NGdlMRMwEQYDVQQDEwpIb3N0NGdlIENBMRMw
EQYDVQQpEwpIb3N0NGdlIENBggkAv8koNB764GIwEwYDVR0lBAwwCgYIKwYBBQUH
AwIwCwYDVR0PBAQDAgeAMA0GCSqGSIb3DQEBBQUAA4ICAQCkK5SEG+OZv0Jj/w47
d8LFVJKROCYibjmqKMgq80zyxkCNDY4gLpieE1YzB6ADxGZp96ms6Kx0frQH1aaQ
5xpsu5mc08I9w3rbNx0D6o2kmH3l+pihpBCv2YES/7z4u4STVb/uu71pTo6oW+kb
V4ZogBsEenMXoosDI/4n6W8FgVIiF/YAlDoOrHkeWrxrZQCqhd0O8XbHfGunjWXD
v8htRjy2uF17a1WzyCdp7g15HbkedwuuQMKOH8XNxIV/H1ZmRONNSlBpF4a5Onwf
CYeCeP+/mAhZnPtgJoBKCXfF2A5utSUOOcFrbqoRsGmucgQ/Pmam6MZznWnIZQ/8
MMltpv4liS+U/y5bueBem5XJe3+KICTyaEuCgqz5t23oCgnRtiLv5K6KJEjKtuca
MbDxvOEmazN5jsVjomJHXKq4XQX96PgkMHw9xqVVqIGM+sQ0XbVAB3v3qcsV8I0Q
zEnFd8rXYyAHOV3eQJoBDq9DgDqMxXeR+HHbVoVjLGet4QTmQO+SCojVDeFq+D3/
6aVj2UWsnMhug1lRbNjPCYEfii6oav8GYzTcTX6xsJIFzVkv49bF4W4i8zAKNWOk
XEJqnTrOYu05f2AKQtQ1E/CthuSO7MxVHxIuZdIoC8ULmfypO26WlX7SvAnArjTi
TuRu/mxXiYGGB5pKk1uMa+Iraw==
-----END CERTIFICATE-----
