Certificate:
    Data:
        Version: 3 (0x2)
        Serial Number: 3 (0x3)
    Signature Algorithm: sha1WithRSAEncryption
        Issuer: C=PL, O=Host4ge, CN=Host4ge CA/name=Host4ge CA
        Validity
            Not Before: Aug 10 08:12:42 2012 GMT
            Not After : Aug  8 08:12:42 2022 GMT
        Subject: C=PL, O=Host4ge, CN=jupiter/emailAddress=admin@host4ge.com
        Subject Public Key Info:
            Public Key Algorithm: rsaEncryption
                Public-Key: (4096 bit)
                Modulus:
                    00:af:cb:9c:e5:d2:ea:b1:4e:36:76:7e:e2:ac:74:
                    13:ea:1a:e8:b9:a1:6e:50:53:ce:7a:f5:75:7e:13:
                    02:97:af:77:04:c5:2b:26:6b:1e:2d:a8:2a:53:d9:
                    04:48:0c:f3:ad:b7:c4:32:47:78:45:e3:4f:89:bf:
                    dd:66:c3:ad:17:c4:b1:76:85:fd:00:6a:d3:99:a7:
                    ac:2e:86:00:0e:18:c8:cf:b9:31:1a:f9:e6:29:8d:
                    94:8a:c8:c5:75:ff:33:5a:18:0d:fc:36:37:68:3f:
                    a5:eb:43:42:e4:6f:79:19:5d:14:0a:4b:10:92:bd:
                    6b:49:0a:ef:eb:8e:23:a1:72:65:10:16:61:ad:45:
                    ae:59:92:1a:ef:10:6b:9e:28:10:cd:b9:af:fc:3b:
                    94:a3:f8:f2:62:aa:b9:c0:e1:a7:c9:33:77:07:b9:
                    dc:d8:bc:63:b5:49:bf:aa:95:84:0e:a5:7f:60:59:
                    4c:80:df:dc:c4:bb:65:af:59:c2:b1:c9:4c:fa:1f:
                    1c:c1:62:aa:9f:af:45:c3:5d:9c:6e:e2:44:e0:90:
                    bd:7d:95:dd:b5:bb:ef:51:c5:2f:d5:23:ff:5c:07:
                    2b:a5:d7:17:1c:37:57:77:ce:4a:ce:f2:53:ce:5c:
                    c0:d2:f2:1f:26:14:64:62:85:3c:fb:54:18:ad:4b:
                    98:54:0a:e3:a7:57:62:d9:1e:ad:87:ca:7f:76:bc:
                    83:f9:5c:c4:ed:3d:0f:da:5d:5b:80:4c:6b:4b:f0:
                    5a:90:bf:81:a4:a2:6b:9c:7e:8e:3b:eb:ab:8a:76:
                    03:24:64:5c:f8:8b:fe:af:94:70:50:fe:67:4e:7f:
                    49:45:8b:23:c5:11:76:f4:1a:e0:1b:be:d9:de:ef:
                    0e:96:84:4e:39:54:8e:9c:c5:ef:3d:70:2a:0d:15:
                    c7:54:8d:05:d6:cb:8a:7b:42:62:c3:39:0b:a1:a9:
                    f0:5c:2c:44:e1:5d:be:5a:c9:bc:5e:71:a4:3d:a7:
                    e1:38:46:af:47:99:ff:ef:54:5f:fc:a5:66:0d:58:
                    f9:d6:ba:51:ef:6c:d7:de:38:31:6c:ee:95:4f:4a:
                    1b:e8:3e:96:22:7e:f7:6d:79:30:7f:01:ed:bf:d1:
                    67:40:1d:5c:79:5a:8e:f4:84:50:c1:78:2b:94:5f:
                    62:0b:5b:85:44:a0:bf:2a:93:4c:3d:50:4a:2c:6d:
                    14:1d:0a:f8:59:06:63:d9:b0:74:05:59:b8:25:12:
                    99:e8:18:cb:88:8c:20:9d:ad:95:71:47:c5:ca:37:
                    aa:66:5a:b0:76:e6:50:d7:4f:f6:25:e2:b0:b2:2d:
                    5d:d5:ca:19:48:16:9f:e8:93:bc:c2:73:1c:14:ab:
                    fb:f2:cf
                Exponent: 65537 (0x10001)
        X509v3 extensions:
            X509v3 Basic Constraints: 
                CA:FALSE
            Netscape Comment: 
                Easy-RSA Generated Certificate
            X509v3 Subject Key Identifier: 
                23:0C:9F:DB:62:69:08:FF:1D:CD:E0:7F:52:4F:44:BF:BD:4D:A8:85
            X509v3 Authority Key Identifier: 
                keyid:7B:87:A2:8D:BA:3F:89:FB:95:A4:73:57:EC:A2:AF:18:9E:C9:A3:26
                DirName:/C=PL/O=Host4ge/CN=Host4ge CA/name=Host4ge CA
                serial:BF:C9:28:34:1E:FA:E0:62

            X509v3 Extended Key Usage: 
                TLS Web Client Authentication
            X509v3 Key Usage: 
                Digital Signature
    Signature Algorithm: sha1WithRSAEncryption
         8d:e6:6c:95:52:80:b8:bd:bb:19:52:29:8d:a1:43:80:db:52:
         b6:50:e7:9c:05:3e:6b:81:70:ac:0f:67:e5:46:2a:f5:b1:61:
         ff:fd:8e:21:ad:6f:ed:0d:a1:a1:06:18:a1:15:66:63:be:ba:
         ae:82:9c:65:36:1b:78:ff:99:ec:2e:66:69:95:11:8d:af:07:
         86:3e:24:95:cd:6e:7d:fb:41:14:ae:6c:71:d5:0b:fd:d2:38:
         2f:70:04:f0:ce:0b:a3:c0:2c:97:bc:94:d9:f8:af:bb:93:84:
         4a:30:de:2f:3e:b6:31:68:40:84:70:8b:90:e3:87:7e:f2:fc:
         13:55:8d:f9:35:91:e4:88:ca:87:f0:ed:8f:de:b3:cb:ba:cb:
         8d:3d:b4:b0:c8:d1:84:b7:c2:f7:76:f1:f9:27:ea:cb:37:ae:
         89:cf:39:22:61:f3:22:d3:8c:f6:e3:5e:6c:16:65:56:df:6c:
         58:eb:8b:24:69:14:8f:84:45:52:66:e7:9c:25:ad:9b:5f:cf:
         ba:bb:74:a0:e6:a6:cf:45:9f:83:94:fd:23:1a:95:9a:12:d8:
         ec:4d:24:91:72:4b:90:72:82:92:7e:67:04:9e:0c:48:ce:d0:
         ef:1e:5e:68:d0:83:0e:b4:2e:63:19:6f:66:b0:01:6a:97:d1:
         69:9d:da:3f:a1:35:d6:c9:b5:56:3e:df:03:a5:ba:9d:c9:82:
         4d:59:21:05:9c:64:e2:d5:ef:13:72:23:b5:93:7b:d5:35:49:
         5c:3e:8e:1d:b1:43:a2:5b:31:51:02:90:f3:fa:62:71:12:5b:
         70:6a:e0:d2:8a:e3:5a:5a:9a:d9:ca:52:b7:1f:bb:e6:85:5a:
         89:72:c0:9e:13:61:49:69:a2:c6:b1:34:8f:e6:fb:bf:60:90:
         ee:59:9d:5c:f7:4c:98:0a:6a:6e:13:b9:1a:51:f3:b4:24:8c:
         82:a9:08:b4:dc:35:67:bd:40:14:40:fc:7d:ef:40:cc:1f:5e:
         78:b5:a5:39:4e:7a:44:88:ea:a8:40:db:dc:37:68:e1:ef:50:
         c5:6e:bb:d3:41:0b:d1:12:29:f6:89:d2:6f:50:cf:07:f0:19:
         12:a0:97:55:1b:c7:3f:db:a8:ed:8c:5f:96:e1:64:96:10:2d:
         b7:f0:0d:6b:0c:9e:7e:5b:bf:8c:d6:d7:38:dc:96:00:52:01:
         ac:36:52:d1:84:36:e7:4b:8f:3b:70:c1:f8:f7:70:70:f7:2b:
         08:0d:fa:69:3a:d2:9b:51:e4:a6:ee:27:95:ae:13:f2:6c:9f:
         bd:dc:3e:e5:96:15:29:a1:19:88:2c:2b:8b:75:23:3d:c8:e4:
         a4:b4:56:23:77:fc:3e:24
-----BEGIN CERTIFICATE-----
MIIGETCCA/mgAwIBAgIBAzANBgkqhkiG9w0BAQUFADBJMQswCQYDVQQGEwJQTDEQ
MA4GA1UEChMHSG9zdDRnZTETMBEGA1UEAxMKSG9zdDRnZSBDQTETMBEGA1UEKRMK
SG9zdDRnZSBDQTAeFw0xMjA4MTAwODEyNDJaFw0yMjA4MDgwODEyNDJaMFMxCzAJ
BgNVBAYTAlBMMRAwDgYDVQQKEwdIb3N0NGdlMRAwDgYDVQQDEwdqdXBpdGVyMSAw
HgYJKoZIhvcNAQkBFhFhZG1pbkBob3N0NGdlLmNvbTCCAiIwDQYJKoZIhvcNAQEB
BQADggIPADCCAgoCggIBAK/LnOXS6rFONnZ+4qx0E+oa6LmhblBTznr1dX4TApev
dwTFKyZrHi2oKlPZBEgM8623xDJHeEXjT4m/3WbDrRfEsXaF/QBq05mnrC6GAA4Y
yM+5MRr55imNlIrIxXX/M1oYDfw2N2g/petDQuRveRldFApLEJK9a0kK7+uOI6Fy
ZRAWYa1FrlmSGu8Qa54oEM25r/w7lKP48mKqucDhp8kzdwe53Ni8Y7VJv6qVhA6l
f2BZTIDf3MS7Za9ZwrHJTPofHMFiqp+vRcNdnG7iROCQvX2V3bW771HFL9Uj/1wH
K6XXFxw3V3fOSs7yU85cwNLyHyYUZGKFPPtUGK1LmFQK46dXYtkerYfKf3a8g/lc
xO09D9pdW4BMa0vwWpC/gaSia5x+jjvrq4p2AyRkXPiL/q+UcFD+Z05/SUWLI8UR
dvQa4Bu+2d7vDpaETjlUjpzF7z1wKg0Vx1SNBdbLintCYsM5C6Gp8FwsROFdvlrJ
vF5xpD2n4ThGr0eZ/+9UX/ylZg1Y+da6Ue9s1944MWzulU9KG+g+liJ+9215MH8B
7b/RZ0AdXHlajvSEUMF4K5RfYgtbhUSgvyqTTD1QSixtFB0K+FkGY9mwdAVZuCUS
megYy4iMIJ2tlXFHxco3qmZasHbmUNdP9iXisLItXdXKGUgWn+iTvMJzHBSr+/LP
AgMBAAGjgfkwgfYwCQYDVR0TBAIwADAtBglghkgBhvhCAQ0EIBYeRWFzeS1SU0Eg
R2VuZXJhdGVkIENlcnRpZmljYXRlMB0GA1UdDgQWBBQjDJ/bYmkI/x3N4H9ST0S/
vU2ohTB5BgNVHSMEcjBwgBR7h6KNuj+J+5Wkc1fsoq8YnsmjJqFNpEswSTELMAkG
A1UEBhMCUEwxEDAOBgNVBAoTB0hvc3Q0Z2UxEzARBgNVBAMTCkhvc3Q0Z2UgQ0Ex
EzARBgNVBCkTCkhvc3Q0Z2UgQ0GCCQC/ySg0HvrgYjATBgNVHSUEDDAKBggrBgEF
BQcDAjALBgNVHQ8EBAMCB4AwDQYJKoZIhvcNAQEFBQADggIBAI3mbJVSgLi9uxlS
KY2hQ4DbUrZQ55wFPmuBcKwPZ+VGKvWxYf/9jiGtb+0NoaEGGKEVZmO+uq6CnGU2
G3j/mewuZmmVEY2vB4Y+JJXNbn37QRSubHHVC/3SOC9wBPDOC6PALJe8lNn4r7uT
hEow3i8+tjFoQIRwi5Djh37y/BNVjfk1keSIyofw7Y/es8u6y409tLDI0YS3wvd2
8fkn6ss3ronPOSJh8yLTjPbjXmwWZVbfbFjriyRpFI+ERVJm55wlrZtfz7q7dKDm
ps9Fn4OU/SMalZoS2OxNJJFyS5BygpJ+ZwSeDEjO0O8eXmjQgw60LmMZb2awAWqX
0Wmd2j+hNdbJtVY+3wOlup3Jgk1ZIQWcZOLV7xNyI7WTe9U1SVw+jh2xQ6JbMVEC
kPP6YnESW3Bq4NKK41pamtnKUrcfu+aFWolywJ4TYUlposaxNI/m+79gkO5ZnVz3
TJgKam4TuRpR87QkjIKpCLTcNWe9QBRA/H3vQMwfXni1pTlOekSI6qhA29w3aOHv
UMVuu9NBC9ESKfaJ0m9QzwfwGRKgl1Ubxz/bqO2MX5bhZJYQLbfwDWsMnn5bv4zW
1zjclgBSAaw2UtGENudLjztwwfj3cHD3KwgN+mk60ptR5KbuJ5WuE/Jsn73cPuWW
FSmhGYgsK4t1Iz3I5KS0ViN3/D4k
-----END CERTIFICATE-----
