Certificate:
    Data:
        Version: 3 (0x2)
        Serial Number: 4 (0x4)
    Signature Algorithm: sha1WithRSAEncryption
        Issuer: C=PL, O=Host4ge, CN=Host4ge CA/name=Host4ge CA
        Validity
            Not Before: Aug 10 08:13:05 2012 GMT
            Not After : Aug  8 08:13:05 2022 GMT
        Subject: C=PL, O=Host4ge, CN=mars/emailAddress=admin@host4ge.com
        Subject Public Key Info:
            Public Key Algorithm: rsaEncryption
                Public-Key: (4096 bit)
                Modulus:
                    00:db:58:ab:22:86:af:e6:d6:ab:72:42:8f:02:82:
                    aa:0b:a0:02:1c:47:bb:4c:f3:40:19:5f:d1:ea:2a:
                    a2:b7:96:3b:a7:1a:41:40:44:d6:06:0d:50:e2:62:
                    04:19:ec:9b:55:b0:e0:03:d2:df:97:3f:82:68:82:
                    e9:00:76:76:3c:04:e5:34:c4:dd:93:d5:8a:fd:c9:
                    d2:77:a7:e5:e8:50:5d:67:8e:0d:ce:4e:8d:d0:0f:
                    8f:4e:22:35:48:1f:f1:5c:7c:36:7f:02:b1:68:75:
                    2e:60:82:81:90:41:73:9d:58:14:4e:04:7d:47:27:
                    c2:23:e3:30:07:28:19:02:8e:0c:06:11:be:27:4a:
                    9a:ee:37:b0:66:48:a8:aa:38:25:c6:04:8f:69:04:
                    64:ff:ea:3e:69:19:a6:d5:fa:29:a5:54:b7:ae:2a:
                    37:74:b1:d1:07:70:03:7e:90:65:e8:1c:59:6e:29:
                    07:d7:fd:1a:b1:0e:aa:ad:23:2d:cd:7a:30:a1:09:
                    5f:e6:26:ce:07:b0:59:33:42:00:75:e6:f7:56:87:
                    a9:93:95:58:f9:f1:14:fe:47:52:12:9a:6e:4c:a7:
                    bb:6f:07:82:83:f6:c9:36:bc:db:d6:4b:65:b9:f4:
                    03:02:c8:9a:f0:d6:98:bb:5d:b7:55:1e:17:c5:c5:
                    f5:c3:e2:81:80:47:7c:53:0e:56:b6:57:57:a2:12:
                    e7:60:25:db:e8:4d:27:62:f0:fc:4f:f9:89:cb:83:
                    5a:24:17:0d:a0:5e:0b:69:98:8a:38:bb:6f:a2:ca:
                    76:bd:02:04:a6:2b:ef:41:a7:3c:5a:33:21:df:c0:
                    76:de:5d:7c:6a:14:4e:e6:78:a9:03:1b:61:b7:78:
                    68:21:98:81:56:c5:6f:97:87:28:8b:68:98:a8:8b:
                    ea:2e:04:a9:50:e1:eb:22:27:b1:82:1f:be:f7:20:
                    c9:b3:5b:3d:87:f0:d4:51:3b:cb:8e:20:ca:5a:e1:
                    30:ee:3a:bc:f1:3d:4f:a8:2e:3e:de:2f:27:73:20:
                    84:ac:8c:b5:bc:e7:23:ea:56:15:0d:18:f8:3f:49:
                    48:c8:05:79:bf:49:c1:cc:76:fb:64:62:41:92:7c:
                    93:9d:6b:cd:fc:d3:c7:37:ce:9c:68:47:4f:3a:b2:
                    13:d5:2b:54:3a:1c:5f:eb:72:71:5e:1a:3b:95:a4:
                    fe:c6:86:7b:cc:a5:81:12:ec:f8:2b:22:fb:37:41:
                    c5:b5:73:e9:d5:c9:ab:e2:de:2d:7f:3e:a4:6f:e1:
                    fb:e5:15:a2:98:26:4d:72:97:c0:2f:ce:14:18:c6:
                    f2:28:4b:9a:dd:8b:2b:68:21:b4:9d:7b:e6:ca:0f:
                    ea:48:73
                Exponent: 65537 (0x10001)
        X509v3 extensions:
            X509v3 Basic Constraints: 
                CA:FALSE
            Netscape Comment: 
                Easy-RSA Generated Certificate
            X509v3 Subject Key Identifier: 
                37:88:8B:A8:F5:2B:31:2C:84:98:F3:48:2A:75:08:52:4B:74:94:95
            X509v3 Authority Key Identifier: 
                keyid:7B:87:A2:8D:BA:3F:89:FB:95:A4:73:57:EC:A2:AF:18:9E:C9:A3:26
                DirName:/C=PL/O=Host4ge/CN=Host4ge CA/name=Host4ge CA
                serial:BF:C9:28:34:1E:FA:E0:62

            X509v3 Extended Key Usage: 
                TLS Web Client Authentication
            X509v3 Key Usage: 
                Digital Signature
    Signature Algorithm: sha1WithRSAEncryption
         65:1e:63:e9:61:28:2a:e7:fd:46:0a:de:e5:7d:93:c8:03:ad:
         03:20:eb:89:3c:df:c0:19:a2:45:e9:fe:cd:51:9f:da:75:80:
         36:ac:a3:11:54:9c:9f:67:8c:2d:48:04:dc:fc:8f:55:b2:0b:
         56:14:8a:34:8e:74:fa:17:ef:30:b5:29:ab:53:cf:dc:e9:67:
         aa:15:c0:2f:a4:06:a8:6a:4f:c5:bb:43:d9:c3:09:b2:5d:76:
         a7:bf:4f:3d:04:6c:b9:6a:eb:63:95:2b:0f:ad:44:05:be:6c:
         87:33:68:6a:79:82:2a:53:2e:2a:e1:b1:f6:37:df:78:d3:7f:
         c4:e3:a8:46:8c:1c:7c:f8:45:0b:5d:8a:38:4d:08:27:97:c3:
         d4:d7:c3:20:e1:b1:56:f9:08:ba:41:4f:5a:a9:0b:87:4e:5c:
         a1:09:ae:a8:13:38:89:73:fd:ed:a9:ed:8e:10:f1:ae:92:37:
         67:d8:44:20:ed:68:83:72:ac:0a:67:3f:52:9a:dc:a1:8e:68:
         21:b6:67:0e:63:3f:12:ba:91:ea:be:9b:de:dc:85:76:86:1a:
         19:9c:aa:e6:b5:fb:76:26:43:cb:9b:00:a6:cf:a2:9d:82:59:
         45:7f:14:86:2a:b8:06:fc:9d:2b:40:4e:b2:78:fe:f8:29:f6:
         0d:de:69:9f:7d:b6:b7:04:2e:4b:b1:d4:3c:85:a6:81:87:0e:
         98:13:42:6c:d2:81:85:f8:08:00:7c:e4:e7:f7:12:0d:37:a9:
         74:71:02:c4:98:67:b8:87:e5:3a:0a:38:1d:fb:1b:12:69:a4:
         30:3d:5d:fd:36:6d:c0:1e:61:6f:8b:38:df:31:2e:77:5f:2c:
         4a:35:c9:03:d8:53:b5:92:f1:55:98:4c:15:bd:19:54:d7:14:
         85:93:fd:e2:84:c0:ef:9d:f2:72:7b:a0:2b:c4:b2:9d:ed:a4:
         0f:04:62:ff:97:a3:95:64:7f:4b:8b:db:22:68:5e:4b:97:8d:
         28:0f:b8:d9:00:99:f6:b7:f0:d9:cf:1d:78:93:5f:38:88:02:
         25:82:50:99:83:f2:f3:5d:98:7e:a5:a1:d3:23:f8:fa:5f:b0:
         7b:bb:65:59:00:62:1d:d8:7a:b1:50:5b:3e:71:11:b8:92:63:
         1d:04:62:f4:87:79:cf:5f:b2:01:0e:55:e1:50:61:0d:6a:13:
         26:2f:e7:a5:53:8a:26:e7:a0:21:88:d2:b1:74:7e:5c:c7:da:
         ac:ac:b5:25:ae:f8:0e:ab:eb:65:fc:c7:53:e8:a0:aa:5e:71:
         2e:d0:69:bc:49:9c:b5:42:1a:4e:01:df:85:f8:cf:c0:03:d8:
         7a:10:15:1d:e7:ba:65:75
-----BEGIN CERTIFICATE-----
MIIGDjCCA/agAwIBAgIBBDANBgkqhkiG9w0BAQUFADBJMQswCQYDVQQGEwJQTDEQ
MA4GA1UEChMHSG9zdDRnZTETMBEGA1UEAxMKSG9zdDRnZSBDQTETMBEGA1UEKRMK
SG9zdDRnZSBDQTAeFw0xMjA4MTAwODEzMDVaFw0yMjA4MDgwODEzMDVaMFAxCzAJ
BgNVBAYTAlBMMRAwDgYDVQQKEwdIb3N0NGdlMQ0wCwYDVQQDEwRtYXJzMSAwHgYJ
KoZIhvcNAQkBFhFhZG1pbkBob3N0NGdlLmNvbTCCAiIwDQYJKoZIhvcNAQEBBQAD
ggIPADCCAgoCggIBANtYqyKGr+bWq3JCjwKCqgugAhxHu0zzQBlf0eoqoreWO6ca
QUBE1gYNUOJiBBnsm1Ww4APS35c/gmiC6QB2djwE5TTE3ZPViv3J0nen5ehQXWeO
Dc5OjdAPj04iNUgf8Vx8Nn8CsWh1LmCCgZBBc51YFE4EfUcnwiPjMAcoGQKODAYR
vidKmu43sGZIqKo4JcYEj2kEZP/qPmkZptX6KaVUt64qN3Sx0QdwA36QZegcWW4p
B9f9GrEOqq0jLc16MKEJX+YmzgewWTNCAHXm91aHqZOVWPnxFP5HUhKabkynu28H
goP2yTa829ZLZbn0AwLImvDWmLtdt1UeF8XF9cPigYBHfFMOVrZXV6IS52Al2+hN
J2Lw/E/5icuDWiQXDaBeC2mYiji7b6LKdr0CBKYr70GnPFozId/Adt5dfGoUTuZ4
qQMbYbd4aCGYgVbFb5eHKItomKiL6i4EqVDh6yInsYIfvvcgybNbPYfw1FE7y44g
ylrhMO46vPE9T6guPt4vJ3MghKyMtbznI+pWFQ0Y+D9JSMgFeb9Jwcx2+2RiQZJ8
k51rzfzTxzfOnGhHTzqyE9UrVDocX+tycV4aO5Wk/saGe8ylgRLs+Csi+zdBxbVz
6dXJq+LeLX8+pG/h++UVopgmTXKXwC/OFBjG8ihLmt2LK2ghtJ175soP6khzAgMB
AAGjgfkwgfYwCQYDVR0TBAIwADAtBglghkgBhvhCAQ0EIBYeRWFzeS1SU0EgR2Vu
ZXJhdGVkIENlcnRpZmljYXRlMB0GA1UdDgQWBBQ3iIuo9SsxLISY80gqdQhSS3SU
lTB5BgNVHSMEcjBwgBR7h6KNuj+J+5Wkc1fsoq8YnsmjJqFNpEswSTELMAkGA1UE
BhMCUEwxEDAOBgNVBAoTB0hvc3Q0Z2UxEzARBgNVBAMTCkhvc3Q0Z2UgQ0ExEzAR
BgNVBCkTCkhvc3Q0Z2UgQ0GCCQC/ySg0HvrgYjATBgNVHSUEDDAKBggrBgEFBQcD
AjALBgNVHQ8EBAMCB4AwDQYJKoZIhvcNAQEFBQADggIBAGUeY+lhKCrn/UYK3uV9
k8gDrQMg64k838AZokXp/s1Rn9p1gDasoxFUnJ9njC1IBNz8j1WyC1YUijSOdPoX
7zC1KatTz9zpZ6oVwC+kBqhqT8W7Q9nDCbJddqe/Tz0EbLlq62OVKw+tRAW+bIcz
aGp5gipTLirhsfY333jTf8TjqEaMHHz4RQtdijhNCCeXw9TXwyDhsVb5CLpBT1qp
C4dOXKEJrqgTOIlz/e2p7Y4Q8a6SN2fYRCDtaINyrApnP1Ka3KGOaCG2Zw5jPxK6
keq+m97chXaGGhmcqua1+3YmQ8ubAKbPop2CWUV/FIYquAb8nStATrJ4/vgp9g3e
aZ99trcELkux1DyFpoGHDpgTQmzSgYX4CAB85Of3Eg03qXRxAsSYZ7iH5ToKOB37
GxJppDA9Xf02bcAeYW+LON8xLndfLEo1yQPYU7WS8VWYTBW9GVTXFIWT/eKEwO+d
8nJ7oCvEsp3tpA8EYv+Xo5Vkf0uL2yJoXkuXjSgPuNkAmfa38NnPHXiTXziIAiWC
UJmD8vNdmH6lodMj+PpfsHu7ZVkAYh3YerFQWz5xEbiSYx0EYvSHec9fsgEOVeFQ
YQ1qEyYv56VTiibnoCGI0rF0flzH2qystSWu+A6r62X8x1PooKpecS7QabxJnLVC
Gk4B34X4z8AD2HoQFR3numV1
-----END CERTIFICATE-----
