Certificate:
    Data:
        Version: 3 (0x2)
        Serial Number: 5 (0x5)
    Signature Algorithm: sha1WithRSAEncryption
        Issuer: C=PL, O=Host4ge, CN=Host4ge CA/name=Host4ge CA
        Validity
            Not Before: Aug 10 08:13:23 2012 GMT
            Not After : Aug  8 08:13:23 2022 GMT
        Subject: C=PL, O=Host4ge, CN=saturn/emailAddress=admin@host4ge.com
        Subject Public Key Info:
            Public Key Algorithm: rsaEncryption
                Public-Key: (4096 bit)
                Modulus:
                    00:d6:61:a3:07:a5:9f:86:40:5d:f2:01:d4:f9:f4:
                    56:2f:f6:9a:e1:2b:e8:da:11:2c:b8:53:2e:48:6f:
                    e8:4c:da:e5:8d:4f:c0:b6:94:bd:89:69:69:bc:34:
                    42:4d:06:6e:87:ea:09:4b:3d:b9:15:c4:c0:72:31:
                    1c:22:24:0c:40:45:8b:3c:9a:ed:26:c2:72:10:31:
                    6e:5a:e1:0a:18:a6:83:9a:15:bc:a5:9a:af:5d:4d:
                    41:3f:5b:09:3d:e1:1f:aa:4f:26:28:a3:01:e9:f0:
                    ed:33:ec:89:c0:c0:0f:5e:d2:07:72:bf:f6:75:51:
                    23:ab:00:ef:bf:91:28:2e:69:ea:6d:8f:9d:82:3b:
                    9f:98:e1:bb:83:2b:89:05:ad:a8:10:8e:d6:92:71:
                    7f:8a:27:e5:c3:b3:c9:b9:3e:74:63:c9:a3:5c:3e:
                    21:2d:af:d7:a6:93:76:6d:ba:15:62:2c:a7:75:e3:
                    dd:e8:fa:e2:78:d5:45:d5:9e:47:1e:e2:de:65:36:
                    2f:5a:f0:26:8c:e3:c3:84:d5:a3:6a:57:a6:cd:53:
                    54:b3:c3:31:37:d1:af:14:71:ee:0f:e9:86:95:40:
                    a7:0f:b8:bc:02:ce:41:97:8c:3f:55:67:af:ed:73:
                    63:bf:74:dd:e5:6b:8f:1b:f0:2c:c2:91:b5:9f:41:
                    81:4f:63:de:19:1e:28:e8:2f:cf:87:12:f7:5b:c7:
                    89:99:5c:cc:ef:e6:88:d6:f2:d8:8c:cc:11:23:8c:
                    e9:1d:86:bc:af:ce:c9:0d:69:51:ab:fe:af:a5:4d:
                    0e:0a:3f:47:13:db:15:91:a6:91:12:27:f3:53:5d:
                    ea:f2:3e:bd:6c:68:76:20:b3:fa:c7:a1:30:1f:bc:
                    d3:08:ba:f9:36:29:61:b5:d2:8f:81:92:b5:19:44:
                    b0:80:66:93:ea:c1:29:aa:b0:8e:72:56:8e:38:0c:
                    7e:55:ef:8a:fc:c1:0d:fd:8d:ad:d7:df:a1:72:70:
                    58:95:bd:62:e0:40:ba:d2:9b:f3:e4:48:36:30:47:
                    40:de:bb:96:9f:b7:1e:00:00:ee:83:3a:7f:99:e3:
                    cd:ed:4b:79:0a:52:86:ef:92:b8:41:54:be:bd:c2:
                    7f:6d:34:62:2e:34:03:6b:09:7e:a1:8f:97:d4:ec:
                    e3:92:47:66:13:f2:3f:4f:05:15:b5:7e:44:5d:61:
                    56:f7:b8:1b:af:45:d5:54:fa:07:a1:e7:be:89:a2:
                    1f:6d:5d:a1:86:9a:5a:ab:9d:59:c8:e1:0c:cc:99:
                    64:53:04:45:64:59:56:b6:7b:af:f9:5a:04:ca:34:
                    03:b3:4c:df:a2:4d:54:cd:b2:41:bd:37:68:ca:51:
                    b3:90:15
                Exponent: 65537 (0x10001)
        X509v3 extensions:
            X509v3 Basic Constraints: 
                CA:FALSE
            Netscape Comment: 
                Easy-RSA Generated Certificate
            X509v3 Subject Key Identifier: 
                B7:F6:AD:75:41:0C:53:42:40:2A:E8:62:FA:D3:B7:77:F1:AC:62:54
            X509v3 Authority Key Identifier: 
                keyid:7B:87:A2:8D:BA:3F:89:FB:95:A4:73:57:EC:A2:AF:18:9E:C9:A3:26
                DirName:/C=PL/O=Host4ge/CN=Host4ge CA/name=Host4ge CA
                serial:BF:C9:28:34:1E:FA:E0:62

            X509v3 Extended Key Usage: 
                TLS Web Client Authentication
            X509v3 Key Usage: 
                Digital Signature
    Signature Algorithm: sha1WithRSAEncryption
         ab:c2:f5:9e:9b:1c:37:18:16:d3:9a:23:5f:7a:c3:9d:42:af:
         78:b6:63:52:33:39:a1:79:25:96:1a:2c:49:73:fa:2a:29:06:
         07:8a:c3:c1:7b:11:4e:d0:e2:a5:39:98:0b:f4:9e:b6:b3:7b:
         f0:f8:79:23:cb:2b:d8:f0:17:41:e3:2a:30:7a:b7:e6:d2:87:
         89:71:a2:7a:0d:35:32:62:9a:ea:d8:79:b8:89:42:51:82:3e:
         d9:a2:bf:eb:48:f5:7c:2a:fb:50:f3:a6:ac:e9:8c:87:ef:ce:
         d0:76:c9:6a:c9:0d:48:ba:0b:73:58:25:5d:96:62:e4:52:04:
         c9:e1:b3:8b:26:50:fd:86:08:71:27:f0:bf:76:aa:5d:ce:b9:
         74:55:35:88:23:c1:05:a3:d4:35:c0:1c:68:46:ae:76:fd:52:
         18:8c:64:79:2c:6e:32:a8:3c:f9:15:28:e2:e8:b0:31:07:08:
         a7:a7:d4:12:ec:ac:06:56:51:98:b2:80:1a:77:e0:ec:f1:88:
         f0:2d:ac:17:1f:8f:8e:4d:ff:3e:84:11:0a:c2:ce:f0:db:ad:
         52:32:bc:0d:67:6c:eb:e7:27:ac:01:ba:cb:a2:53:a1:ec:43:
         29:0b:47:8b:0e:1d:45:60:f9:16:4e:a0:7b:ed:97:0a:96:9d:
         1f:9e:e3:1f:d6:98:d8:9a:9a:67:b5:0a:e5:b3:b0:9e:b0:c9:
         b0:c5:91:d9:29:43:3a:28:27:e4:29:20:4f:73:37:ea:54:6f:
         8a:aa:0b:a3:7f:e9:b8:69:e2:3c:c4:e0:14:41:82:db:f3:0a:
         ba:5e:d1:0f:ee:6f:a7:77:c8:96:4f:52:ba:8d:01:f2:c6:a2:
         ad:82:ef:ef:d6:9f:f4:f2:b9:ce:a3:30:e2:77:de:aa:47:41:
         73:9a:63:8d:24:d9:fe:ce:85:bf:91:8a:f8:d1:ab:c3:0c:3f:
         29:d3:76:29:4a:cd:44:d2:81:d7:26:34:9e:08:ea:eb:e1:79:
         90:0f:dd:5a:1c:a4:13:e9:e0:01:7a:f0:b3:ce:08:5e:2d:2e:
         e5:75:cb:c3:c2:f4:de:c3:25:23:04:fe:c8:2b:fd:36:f0:64:
         c6:a6:2f:2c:a8:f6:41:6c:44:40:31:75:84:ed:95:c4:a2:68:
         c0:0f:78:ab:e8:06:d1:e8:fb:32:f1:db:cc:e3:7d:f3:97:93:
         ac:04:e1:e7:22:2f:7c:5e:fd:5f:70:8a:49:ca:b0:c3:c3:66:
         8f:ab:38:66:35:0a:38:fa:fe:09:c7:0c:8c:0b:56:d6:ac:93:
         bd:a2:73:b8:84:3a:04:89:94:f7:ad:02:20:4a:40:c3:3d:57:
         3c:62:cd:1e:46:aa:75:b3
-----BEGIN CERTIFICATE-----
MIIGEDCCA/igAwIBAgIBBTANBgkqhkiG9w0BAQUFADBJMQswCQYDVQQGEwJQTDEQ
MA4GA1UEChMHSG9zdDRnZTETMBEGA1UEAxMKSG9zdDRnZSBDQTETMBEGA1UEKRMK
SG9zdDRnZSBDQTAeFw0xMjA4MTAwODEzMjNaFw0yMjA4MDgwODEzMjNaMFIxCzAJ
BgNVBAYTAlBMMRAwDgYDVQQKEwdIb3N0NGdlMQ8wDQYDVQQDEwZzYXR1cm4xIDAe
BgkqhkiG9w0BCQEWEWFkbWluQGhvc3Q0Z2UuY29tMIICIjANBgkqhkiG9w0BAQEF
AAOCAg8AMIICCgKCAgEA1mGjB6WfhkBd8gHU+fRWL/aa4Svo2hEsuFMuSG/oTNrl
jU/AtpS9iWlpvDRCTQZuh+oJSz25FcTAcjEcIiQMQEWLPJrtJsJyEDFuWuEKGKaD
mhW8pZqvXU1BP1sJPeEfqk8mKKMB6fDtM+yJwMAPXtIHcr/2dVEjqwDvv5EoLmnq
bY+dgjufmOG7gyuJBa2oEI7WknF/iiflw7PJuT50Y8mjXD4hLa/XppN2bboVYiyn
dePd6PrieNVF1Z5HHuLeZTYvWvAmjOPDhNWjalemzVNUs8MxN9GvFHHuD+mGlUCn
D7i8As5Bl4w/VWev7XNjv3Td5WuPG/AswpG1n0GBT2PeGR4o6C/PhxL3W8eJmVzM
7+aI1vLYjMwRI4zpHYa8r87JDWlRq/6vpU0OCj9HE9sVkaaREifzU13q8j69bGh2
ILP6x6EwH7zTCLr5NilhtdKPgZK1GUSwgGaT6sEpqrCOclaOOAx+Ve+K/MEN/Y2t
19+hcnBYlb1i4EC60pvz5Eg2MEdA3ruWn7ceAADugzp/mePN7Ut5ClKG75K4QVS+
vcJ/bTRiLjQDawl+oY+X1OzjkkdmE/I/TwUVtX5EXWFW97gbr0XVVPoHoee+iaIf
bV2hhppaq51ZyOEMzJlkUwRFZFlWtnuv+VoEyjQDs0zfok1UzbJBvTdoylGzkBUC
AwEAAaOB+TCB9jAJBgNVHRMEAjAAMC0GCWCGSAGG+EIBDQQgFh5FYXN5LVJTQSBH
ZW5lcmF0ZWQgQ2VydGlmaWNhdGUwHQYDVR0OBBYEFLf2rXVBDFNCQCroYvrTt3fx
rGJUMHkGA1UdIwRyMHCAFHuHoo26P4n7laRzV+yirxieyaMmoU2kSzBJMQswCQYD
VQQGEwJQTDEQMA4GA1UEChMHSG9zdDRnZTETMBEGA1UEAxMKSG9zdDRnZSBDQTET
MBEGA1UEKRMKSG9zdDRnZSBDQYIJAL/JKDQe+uBiMBMGA1UdJQQMMAoGCCsGAQUF
BwMCMAsGA1UdDwQEAwIHgDANBgkqhkiG9w0BAQUFAAOCAgEAq8L1npscNxgW05oj
X3rDnUKveLZjUjM5oXkllhosSXP6KikGB4rDwXsRTtDipTmYC/SetrN78Ph5I8sr
2PAXQeMqMHq35tKHiXGieg01MmKa6th5uIlCUYI+2aK/60j1fCr7UPOmrOmMh+/O
0HbJaskNSLoLc1glXZZi5FIEyeGziyZQ/YYIcSfwv3aqXc65dFU1iCPBBaPUNcAc
aEaudv1SGIxkeSxuMqg8+RUo4uiwMQcIp6fUEuysBlZRmLKAGnfg7PGI8C2sFx+P
jk3/PoQRCsLO8NutUjK8DWds6+cnrAG6y6JToexDKQtHiw4dRWD5Fk6ge+2XCpad
H57jH9aY2JqaZ7UK5bOwnrDJsMWR2SlDOign5CkgT3M36lRviqoLo3/puGniPMTg
FEGC2/MKul7RD+5vp3fIlk9Suo0B8sairYLv79af9PK5zqMw4nfeqkdBc5pjjSTZ
/s6Fv5GK+NGrwww/KdN2KUrNRNKB1yY0ngjq6+F5kA/dWhykE+ngAXrws84IXi0u
5XXLw8L03sMlIwT+yCv9NvBkxqYvLKj2QWxEQDF1hO2VxKJowA94q+gG0ej7MvHb
zON985eTrATh5yIvfF79X3CKScqww8Nmj6s4ZjUKOPr+CccMjAtW1qyTvaJzuIQ6
BImU960CIEpAwz1XPGLNHkaqdbM=
-----END CERTIFICATE-----
