Certificate:
    Data:
        Version: 3 (0x2)
        Serial Number: 6 (0x6)
    Signature Algorithm: sha1WithRSAEncryption
        Issuer: C=PL, O=Host4ge, CN=Host4ge CA/name=Host4ge CA
        Validity
            Not Before: Aug 10 08:13:35 2012 GMT
            Not After : Aug  8 08:13:35 2022 GMT
        Subject: C=PL, O=Host4ge, CN=uranus/emailAddress=admin@host4ge.com
        Subject Public Key Info:
            Public Key Algorithm: rsaEncryption
                Public-Key: (4096 bit)
                Modulus:
                    00:b8:87:d1:2d:d1:c0:aa:4b:97:81:48:77:3d:0e:
                    bc:32:7c:98:22:2f:70:40:a2:a7:28:31:1f:e1:23:
                    b8:2f:2b:98:14:9b:3d:66:ce:1a:cf:a5:59:23:bc:
                    25:1a:08:d7:f5:24:22:0c:e7:68:b4:26:4a:c7:b4:
                    08:6d:0e:ac:49:54:09:91:5f:fd:1a:96:0e:d5:55:
                    31:06:2c:2e:45:1c:51:8e:b2:63:fa:6d:7b:cd:4a:
                    0b:f6:84:c0:f3:08:6a:0e:16:a5:8f:66:12:5b:61:
                    81:ef:76:3f:5f:c9:1f:18:7b:1d:85:eb:f4:2b:e6:
                    3f:ff:a0:2b:dd:14:79:8a:83:7e:8b:cc:04:cb:26:
                    58:b2:d4:28:2e:55:f4:2d:c4:f1:78:11:2f:51:7f:
                    72:5d:1c:a8:3c:96:f0:a9:e4:03:c2:12:a3:0d:7f:
                    7d:e2:23:4a:5a:dc:28:b5:d8:0e:38:bc:34:e0:2f:
                    b8:06:5a:fd:29:ea:06:0e:7c:95:28:1d:c6:6d:be:
                    fa:6f:e8:e0:1c:fe:9f:3b:18:03:e6:24:bb:ba:5b:
                    bb:e0:dc:04:bd:15:19:d5:e3:58:47:79:c0:b0:70:
                    66:30:b5:96:28:a9:ec:88:10:6f:e6:de:db:11:70:
                    83:51:88:68:27:96:8b:0f:8a:6b:e8:b6:12:84:61:
                    91:d6:0d:5e:c0:54:62:80:f6:6c:94:58:ca:7e:2a:
                    b2:1a:97:83:38:f4:3a:bd:f1:75:c7:55:10:a9:36:
                    20:56:ee:ba:74:f1:cb:35:ac:4e:d8:4d:8b:10:9b:
                    22:9f:6a:e2:7a:b5:68:f9:2a:7b:43:41:c5:12:35:
                    42:dc:d1:3f:7e:88:10:35:d1:d6:fd:ba:36:ad:ed:
                    60:1e:30:34:3a:c6:8d:d9:fe:30:ca:8f:f4:d3:65:
                    3f:8f:85:e7:a5:f7:ec:81:a8:1a:17:fe:b7:9a:38:
                    76:5a:e8:27:11:5e:ee:46:16:b4:43:59:c2:3b:2f:
                    bd:99:68:c0:fe:6f:5b:cf:f3:27:eb:da:2e:7f:ec:
                    fb:7d:bd:0c:bc:8c:de:cf:a6:b0:18:a7:b4:6e:bf:
                    98:1a:de:82:79:99:41:9c:6a:f4:47:e6:4e:14:85:
                    0f:a3:fa:81:93:40:4e:98:e2:5d:c7:cb:c5:1d:86:
                    d1:01:59:9e:d6:2c:c9:e0:ce:2e:1b:8b:7c:0f:88:
                    03:3f:cf:97:5a:c9:55:95:e6:72:d3:df:27:82:50:
                    7c:9a:24:c0:ce:86:7f:45:b3:5e:33:a7:1a:18:26:
                    7d:b4:62:95:15:cd:52:f9:2b:e0:2e:84:f9:aa:3b:
                    a7:a8:6f:cc:68:b6:47:b2:43:ba:9e:c4:f9:55:74:
                    a1:36:2d
                Exponent: 65537 (0x10001)
        X509v3 extensions:
            X509v3 Basic Constraints: 
                CA:FALSE
            Netscape Comment: 
                Easy-RSA Generated Certificate
            X509v3 Subject Key Identifier: 
                89:92:13:71:D3:A6:59:71:F7:A3:7A:43:1B:F9:0E:42:E8:F4:CD:57
            X509v3 Authority Key Identifier: 
                keyid:7B:87:A2:8D:BA:3F:89:FB:95:A4:73:57:EC:A2:AF:18:9E:C9:A3:26
                DirName:/C=PL/O=Host4ge/CN=Host4ge CA/name=Host4ge CA
                serial:BF:C9:28:34:1E:FA:E0:62

            X509v3 Extended Key Usage: 
                TLS Web Client Authentication
            X509v3 Key Usage: 
                Digital Signature
    Signature Algorithm: sha1WithRSAEncryption
         24:29:16:df:92:88:9a:db:a4:04:51:1c:a5:5b:27:f4:b3:95:
         10:9b:4b:77:87:4b:19:6d:ed:9b:68:53:a8:4c:bd:c1:ac:af:
         68:52:ff:7b:4a:1c:ac:4e:5a:b6:e9:d6:0a:86:09:a7:98:eb:
         a4:b5:78:1c:97:55:59:e1:a0:1e:3b:8e:01:ee:a0:e9:7f:f3:
         b5:b2:8a:94:b6:1f:84:2f:4f:8f:eb:51:c3:fb:e1:0f:94:eb:
         01:1e:f9:f9:ff:b2:4c:4b:c3:39:20:c3:20:99:18:ae:c9:7d:
         c5:6f:61:de:28:db:f4:60:b0:68:4d:74:aa:53:47:66:f1:93:
         f9:0b:66:cc:ba:80:13:bd:77:29:c8:08:a4:17:47:55:29:4b:
         f9:df:b2:ec:c9:06:82:e9:75:66:90:73:33:74:f6:bf:5b:4c:
         4a:08:62:45:a1:ea:f2:b8:d2:95:69:76:af:01:e0:03:0c:46:
         bf:6b:2b:24:15:83:52:26:96:90:b2:18:9b:33:fa:ed:d0:32:
         a1:69:b0:f0:ff:b9:6b:c9:26:63:be:f4:30:70:c4:fb:b2:e7:
         cd:d1:6d:82:2f:5d:87:b7:6a:c4:92:b7:4f:03:33:b9:99:2e:
         ee:13:5b:2a:0b:9a:3d:fd:65:85:8b:d4:23:db:4d:cf:f6:33:
         cd:09:3a:48:aa:49:68:84:c8:76:a5:28:03:a7:07:7c:fd:79:
         22:88:57:a5:3e:37:25:d0:52:03:e2:e5:d9:86:4e:18:55:b6:
         48:eb:38:80:f5:7f:f7:43:a9:4c:d8:68:ec:b9:44:79:6c:76:
         90:3f:22:0f:b0:4d:ae:a1:8f:8e:6a:50:bf:28:67:e3:4a:03:
         bf:f6:dd:c9:ac:7d:d8:ad:9e:e0:17:f2:72:87:43:41:ed:9b:
         f3:71:f8:ca:7f:e1:8d:d2:da:14:84:0b:d6:59:1c:ee:89:ed:
         92:9e:0b:7d:87:55:1b:be:aa:48:0f:ae:e6:fd:24:16:51:bb:
         3d:0b:58:1e:63:db:0c:09:dc:3e:e5:60:bb:7c:33:74:ae:67:
         d9:c4:fe:d5:ff:e3:7c:f0:0c:bc:e1:73:e6:f5:68:49:cd:7c:
         1f:53:ed:52:09:71:ed:7b:1c:0a:27:81:50:27:97:0b:94:ec:
         f5:d7:b4:89:a4:e7:38:05:a4:a5:b7:39:ca:f4:bc:00:27:0c:
         ec:05:21:5a:3b:a8:92:93:a7:40:5c:d7:6a:a4:1d:7c:76:26:
         31:84:90:4e:1f:a4:0a:d8:11:fc:73:dc:7e:85:b5:e8:1d:6f:
         d5:18:64:4e:b0:4e:67:03:10:d7:c0:03:ce:5e:1d:65:bf:b4:
         f3:fd:cc:18:66:70:4a:b6
-----BEGIN CERTIFICATE-----
MIIGEDCCA/igAwIBAgIBBjANBgkqhkiG9w0BAQUFADBJMQswCQYDVQQGEwJQTDEQ
MA4GA1UEChMHSG9zdDRnZTETMBEGA1UEAxMKSG9zdDRnZSBDQTETMBEGA1UEKRMK
SG9zdDRnZSBDQTAeFw0xMjA4MTAwODEzMzVaFw0yMjA4MDgwODEzMzVaMFIxCzAJ
BgNVBAYTAlBMMRAwDgYDVQQKEwdIb3N0NGdlMQ8wDQYDVQQDEwZ1cmFudXMxIDAe
BgkqhkiG9w0BCQEWEWFkbWluQGhvc3Q0Z2UuY29tMIICIjANBgkqhkiG9w0BAQEF
AAOCAg8AMIICCgKCAgEAuIfRLdHAqkuXgUh3PQ68MnyYIi9wQKKnKDEf4SO4LyuY
FJs9Zs4az6VZI7wlGgjX9SQiDOdotCZKx7QIbQ6sSVQJkV/9GpYO1VUxBiwuRRxR
jrJj+m17zUoL9oTA8whqDhalj2YSW2GB73Y/X8kfGHsdhev0K+Y//6Ar3RR5ioN+
i8wEyyZYstQoLlX0LcTxeBEvUX9yXRyoPJbwqeQDwhKjDX994iNKWtwotdgOOLw0
4C+4Blr9KeoGDnyVKB3Gbb76b+jgHP6fOxgD5iS7ulu74NwEvRUZ1eNYR3nAsHBm
MLWWKKnsiBBv5t7bEXCDUYhoJ5aLD4pr6LYShGGR1g1ewFRigPZslFjKfiqyGpeD
OPQ6vfF1x1UQqTYgVu66dPHLNaxO2E2LEJsin2rierVo+Sp7Q0HFEjVC3NE/fogQ
NdHW/bo2re1gHjA0OsaN2f4wyo/002U/j4XnpffsgagaF/63mjh2WugnEV7uRha0
Q1nCOy+9mWjA/m9bz/Mn69ouf+z7fb0MvIzez6awGKe0br+YGt6CeZlBnGr0R+ZO
FIUPo/qBk0BOmOJdx8vFHYbRAVme1izJ4M4uG4t8D4gDP8+XWslVleZy098nglB8
miTAzoZ/RbNeM6caGCZ9tGKVFc1S+SvgLoT5qjunqG/MaLZHskO6nsT5VXShNi0C
AwEAAaOB+TCB9jAJBgNVHRMEAjAAMC0GCWCGSAGG+EIBDQQgFh5FYXN5LVJTQSBH
ZW5lcmF0ZWQgQ2VydGlmaWNhdGUwHQYDVR0OBBYEFImSE3HTpllx96N6Qxv5DkLo
9M1XMHkGA1UdIwRyMHCAFHuHoo26P4n7laRzV+yirxieyaMmoU2kSzBJMQswCQYD
VQQGEwJQTDEQMA4GA1UEChMHSG9zdDRnZTETMBEGA1UEAxMKSG9zdDRnZSBDQTET
MBEGA1UEKRMKSG9zdDRnZSBDQYIJAL/JKDQe+uBiMBMGA1UdJQQMMAoGCCsGAQUF
BwMCMAsGA1UdDwQEAwIHgDANBgkqhkiG9w0BAQUFAAOCAgEAJCkW35KImtukBFEc
pVsn9LOVEJtLd4dLGW3tm2hTqEy9wayvaFL/e0ocrE5atunWCoYJp5jrpLV4HJdV
WeGgHjuOAe6g6X/ztbKKlLYfhC9Pj+tRw/vhD5TrAR75+f+yTEvDOSDDIJkYrsl9
xW9h3ijb9GCwaE10qlNHZvGT+QtmzLqAE713KcgIpBdHVSlL+d+y7MkGgul1ZpBz
M3T2v1tMSghiRaHq8rjSlWl2rwHgAwxGv2srJBWDUiaWkLIYmzP67dAyoWmw8P+5
a8kmY770MHDE+7LnzdFtgi9dh7dqxJK3TwMzuZku7hNbKguaPf1lhYvUI9tNz/Yz
zQk6SKpJaITIdqUoA6cHfP15IohXpT43JdBSA+Ll2YZOGFW2SOs4gPV/90OpTNho
7LlEeWx2kD8iD7BNrqGPjmpQvyhn40oDv/bdyax92K2e4BfycodDQe2b83H4yn/h
jdLaFIQL1lkc7ontkp4LfYdVG76qSA+u5v0kFlG7PQtYHmPbDAncPuVgu3wzdK5n
2cT+1f/jfPAMvOFz5vVoSc18H1PtUglx7XscCieBUCeXC5Ts9de0iaTnOAWkpbc5
yvS8ACcM7AUhWjuokpOnQFzXaqQdfHYmMYSQTh+kCtgR/HPcfoW16B1v1RhkTrBO
ZwMQ18ADzl4dZb+08/3MGGZwSrY=
-----END CERTIFICATE-----
