Certificate:
    Data:
        Version: 3 (0x2)
        Serial Number: 9 (0x9)
    Signature Algorithm: sha1WithRSAEncryption
        Issuer: C=GB, O=Host4ge, CN=Host4ge CA/name=Host4ge CA
        Validity
            Not Before: Aug  9 22:50:07 2012 GMT
            Not After : Aug  7 22:50:07 2022 GMT
        Subject: C=GB, O=Host4ge, CN=vm23/emailAddress=admin@host4ge.com
        Subject Public Key Info:
            Public Key Algorithm: rsaEncryption
                Public-Key: (4096 bit)
                Modulus:
                    00:db:b4:46:9d:45:02:55:bf:78:35:19:10:18:79:
                    a4:c4:22:a8:ec:8a:e2:08:9d:38:e8:41:6e:5a:b7:
                    69:af:31:fb:2a:1c:8d:f8:9d:7c:2d:8b:f5:b7:cd:
                    1b:b2:c2:3f:7b:fb:ae:31:69:80:26:c6:98:eb:74:
                    6d:74:cd:d6:b0:e9:eb:3d:89:4c:39:cc:d5:7a:97:
                    02:3e:35:53:43:85:9e:51:19:4b:6b:10:5f:36:b5:
                    d2:2c:45:23:a2:a7:b4:37:3a:7c:a7:45:a6:3a:e8:
                    e5:60:81:df:20:d7:6f:ca:22:65:de:07:60:a7:a9:
                    c1:94:7f:50:bf:7a:82:d7:0e:ac:56:90:b7:65:79:
                    4a:31:5d:e8:f0:a9:8e:8d:7a:6b:4f:ec:7e:8e:ee:
                    a3:0a:07:fe:4d:af:95:ce:c8:c6:ad:ff:ce:c2:17:
                    c1:8a:cb:a8:78:de:90:ef:13:e8:48:1e:82:70:7d:
                    3e:16:2b:0b:b8:08:1a:70:18:19:de:b9:93:12:5d:
                    aa:eb:86:28:cc:fb:27:10:0b:c5:6f:d8:86:6d:a4:
                    e5:c6:00:11:66:f8:1f:13:30:88:74:92:bf:20:6a:
                    74:b6:6f:52:d9:38:2f:29:5c:00:f4:74:d0:a1:12:
                    2f:c4:88:aa:89:6a:de:25:e5:37:40:46:2a:a8:0e:
                    4a:ef:e2:52:71:a8:fa:94:8c:19:b0:32:35:59:c8:
                    b8:19:56:45:ed:3b:93:c4:85:59:69:d8:19:66:8b:
                    17:3e:30:d5:8d:61:6d:4c:d0:62:6f:0b:1d:5f:a4:
                    7b:60:ff:90:90:50:0a:32:68:c2:71:be:8f:c6:3c:
                    9d:43:10:2b:22:4c:66:41:44:6e:9e:32:9f:1c:49:
                    a3:6c:96:2f:62:94:8d:84:c1:d9:4b:84:fa:d8:b5:
                    04:16:b4:90:ab:52:f9:96:65:f6:f2:ba:21:a2:50:
                    0c:68:92:16:21:ce:16:9f:aa:35:fb:21:90:66:4d:
                    d3:95:92:10:27:a2:59:52:d8:9b:20:00:b7:07:af:
                    a7:d9:eb:20:b6:b3:ac:ff:09:65:eb:6d:23:62:fe:
                    9f:f4:d0:05:af:21:59:64:3e:be:70:d7:30:5e:75:
                    ec:f3:45:ff:c2:7a:e0:da:c4:a6:6d:56:51:13:78:
                    88:16:73:56:2e:08:61:67:c0:5d:87:f4:6a:68:7a:
                    6f:d1:4e:9c:73:96:af:e6:2a:d6:6e:59:37:05:cc:
                    32:0b:c1:90:8b:ed:10:c7:eb:07:19:75:d6:5d:7e:
                    53:8d:e1:8f:54:7e:2f:96:69:3e:7f:62:d2:2b:bc:
                    ee:fc:dc:4f:f9:9c:88:39:87:a4:9b:39:27:fa:24:
                    b7:35:33
                Exponent: 65537 (0x10001)
        X509v3 extensions:
            X509v3 Basic Constraints: 
                CA:FALSE
            Netscape Comment: 
                Easy-RSA Generated Certificate
            X509v3 Subject Key Identifier: 
                D6:73:72:F8:00:57:FC:41:41:B5:D9:03:8D:29:A1:A2:3A:CF:68:95
            X509v3 Authority Key Identifier: 
                keyid:20:C4:E4:A1:2D:B7:EE:9B:E2:C5:C8:EF:0C:43:AD:AA:D7:DF:7A:6F
                DirName:/C=GB/O=Host4ge/CN=Host4ge CA/name=Host4ge CA
                serial:81:7E:9D:E0:4B:B2:EF:AA

            X509v3 Extended Key Usage: 
                TLS Web Client Authentication
            X509v3 Key Usage: 
                Digital Signature
    Signature Algorithm: sha1WithRSAEncryption
         16:d5:34:6f:05:eb:63:4a:ac:35:d1:e0:5b:0b:8b:7e:4a:2e:
         5d:65:b9:a5:8b:78:46:be:23:92:b0:e0:7f:e2:62:c9:7c:76:
         89:63:c7:e0:36:9c:03:21:0e:8f:d9:73:b8:0a:12:b4:8a:a5:
         63:3b:ed:d3:7d:56:99:fa:c2:8d:0a:98:5b:3e:e9:bf:67:63:
         1d:ad:de:23:df:2f:8a:09:1a:0c:a2:87:aa:89:e6:29:f2:13:
         75:ef:e7:1d:82:a7:4d:82:e8:72:00:75:c0:45:9d:2e:bc:40:
         14:38:48:9f:d9:4e:a7:3e:69:a7:49:d3:8d:99:bd:1b:15:1a:
         c2:c3:54:c0:e0:6e:60:7b:4a:4e:b9:b9:b7:d6:a5:55:c5:4b:
         0e:fb:ad:a2:67:26:0d:76:6e:08:cd:99:13:41:d1:02:95:6b:
         3f:27:78:42:e3:29:a6:1c:5f:84:05:58:25:f3:9c:68:8f:e5:
         28:46:f1:f3:8e:ab:67:4f:57:72:21:3d:04:8b:70:ac:8b:72:
         82:4a:70:be:02:75:27:03:f0:4b:ae:8f:11:12:76:e1:8c:fa:
         bd:16:88:11:dd:1b:0c:8e:fb:9e:84:33:1c:26:63:f1:75:43:
         d4:f9:53:51:11:78:9a:c5:d1:b1:d6:3e:a6:14:06:47:ad:d8:
         7f:b7:fc:cc:e8:d3:70:b4:da:6b:3e:57:78:e7:b2:d8:b5:8c:
         18:34:67:75:bf:18:df:3c:24:2e:bd:9e:88:35:9c:be:e4:39:
         93:75:69:32:ac:0c:19:25:3c:91:e2:cf:1e:ef:5e:49:4b:37:
         cb:3a:9f:cb:1f:ca:43:b1:db:ed:6b:b7:0a:dc:74:2f:35:83:
         70:01:54:41:1d:58:0d:0b:7c:e3:f2:67:2e:37:a4:17:11:77:
         45:e9:78:d9:ea:5f:d2:90:d8:1d:41:4d:22:28:8b:8c:f9:9e:
         07:dd:33:1b:54:3f:48:27:b0:a2:14:85:e5:56:42:dd:45:84:
         55:af:c5:60:a1:c9:45:77:1f:67:61:8e:db:1e:37:0e:8f:34:
         d0:35:4a:af:13:ce:36:f5:0c:13:16:83:63:36:e7:be:f9:ee:
         9c:8c:9a:58:61:65:57:72:5f:bb:d6:69:93:9f:a9:db:c1:84:
         07:45:10:44:d3:ab:f8:9d:23:ad:d1:d8:c9:2d:4b:7a:29:e0:
         f8:8d:c1:2f:ff:c1:0f:74:0e:98:c4:fc:b9:30:a4:a4:b7:00:
         b6:e3:b2:5d:ca:b9:9c:d8:88:6f:00:fa:1f:c2:52:ef:2f:28:
         bf:00:56:90:0a:dc:b4:a4:e0:0b:d5:91:08:40:94:0d:74:85:
         1e:d5:fe:54:16:c1:0f:bb
-----BEGIN CERTIFICATE-----
MIIGDjCCA/agAwIBAgIBCTANBgkqhkiG9w0BAQUFADBJMQswCQYDVQQGEwJHQjEQ
MA4GA1UEChMHSG9zdDRnZTETMBEGA1UEAxMKSG9zdDRnZSBDQTETMBEGA1UEKRMK
SG9zdDRnZSBDQTAeFw0xMjA4MDkyMjUwMDdaFw0yMjA4MDcyMjUwMDdaMFAxCzAJ
BgNVBAYTAkdCMRAwDgYDVQQKEwdIb3N0NGdlMQ0wCwYDVQQDEwR2bTIzMSAwHgYJ
KoZIhvcNAQkBFhFhZG1pbkBob3N0NGdlLmNvbTCCAiIwDQYJKoZIhvcNAQEBBQAD
ggIPADCCAgoCggIBANu0Rp1FAlW/eDUZEBh5pMQiqOyK4gidOOhBblq3aa8x+yoc
jfidfC2L9bfNG7LCP3v7rjFpgCbGmOt0bXTN1rDp6z2JTDnM1XqXAj41U0OFnlEZ
S2sQXza10ixFI6KntDc6fKdFpjro5WCB3yDXb8oiZd4HYKepwZR/UL96gtcOrFaQ
t2V5SjFd6PCpjo16a0/sfo7uowoH/k2vlc7Ixq3/zsIXwYrLqHjekO8T6EgegnB9
PhYrC7gIGnAYGd65kxJdquuGKMz7JxALxW/Yhm2k5cYAEWb4HxMwiHSSvyBqdLZv
Utk4LylcAPR00KESL8SIqolq3iXlN0BGKqgOSu/iUnGo+pSMGbAyNVnIuBlWRe07
k8SFWWnYGWaLFz4w1Y1hbUzQYm8LHV+ke2D/kJBQCjJownG+j8Y8nUMQKyJMZkFE
bp4ynxxJo2yWL2KUjYTB2UuE+ti1BBa0kKtS+ZZl9vK6IaJQDGiSFiHOFp+qNfsh
kGZN05WSECeiWVLYmyAAtwevp9nrILazrP8JZettI2L+n/TQBa8hWWQ+vnDXMF51
7PNF/8J64NrEpm1WURN4iBZzVi4IYWfAXYf0amh6b9FOnHOWr+Yq1m5ZNwXMMgvB
kIvtEMfrBxl11l1+U43hj1R+L5ZpPn9i0iu87vzcT/mciDmHpJs5J/oktzUzAgMB
AAGjgfkwgfYwCQYDVR0TBAIwADAtBglghkgBhvhCAQ0EIBYeRWFzeS1SU0EgR2Vu
ZXJhdGVkIENlcnRpZmljYXRlMB0GA1UdDgQWBBTWc3L4AFf8QUG12QONKaGiOs9o
lTB5BgNVHSMEcjBwgBQgxOShLbfum+LFyO8MQ62q1996b6FNpEswSTELMAkGA1UE
BhMCR0IxEDAOBgNVBAoTB0hvc3Q0Z2UxEzARBgNVBAMTCkhvc3Q0Z2UgQ0ExEzAR
BgNVBCkTCkhvc3Q0Z2UgQ0GCCQCBfp3gS7LvqjATBgNVHSUEDDAKBggrBgEFBQcD
AjALBgNVHQ8EBAMCB4AwDQYJKoZIhvcNAQEFBQADggIBABbVNG8F62NKrDXR4FsL
i35KLl1luaWLeEa+I5Kw4H/iYsl8doljx+A2nAMhDo/Zc7gKErSKpWM77dN9Vpn6
wo0KmFs+6b9nYx2t3iPfL4oJGgyih6qJ5inyE3Xv5x2Cp02C6HIAdcBFnS68QBQ4
SJ/ZTqc+aadJ042ZvRsVGsLDVMDgbmB7Sk65ubfWpVXFSw77raJnJg12bgjNmRNB
0QKVaz8neELjKaYcX4QFWCXznGiP5ShG8fOOq2dPV3IhPQSLcKyLcoJKcL4CdScD
8EuujxESduGM+r0WiBHdGwyO+56EMxwmY/F1Q9T5U1EReJrF0bHWPqYUBket2H+3
/Mzo03C02ms+V3jnsti1jBg0Z3W/GN88JC69nog1nL7kOZN1aTKsDBklPJHizx7v
XklLN8s6n8sfykOx2+1rtwrcdC81g3ABVEEdWA0LfOPyZy43pBcRd0XpeNnqX9KQ
2B1BTSIoi4z5ngfdMxtUP0gnsKIUheVWQt1FhFWvxWChyUV3H2dhjtseNw6PNNA1
Sq8Tzjb1DBMWg2M257757pyMmlhhZVdyX7vWaZOfqdvBhAdFEETTq/idI63R2Mkt
S3op4PiNwS//wQ90DpjE/LkwpKS3ALbjsl3KuZzYiG8A+h/CUu8vKL8AVpAK3LSk
4AvVkQhAlA10hR7V/lQWwQ+7
-----END CERTIFICATE-----
