Certificate:
    Data:
        Version: 3 (0x2)
        Serial Number: 2 (0x2)
    Signature Algorithm: sha1WithRSAEncryption
        Issuer: C=GB, O=Host4ge, CN=Host4ge CA
        Validity
            Not Before: Apr  7 09:44:03 2012 GMT
            Not After : Apr  5 09:44:03 2022 GMT
        Subject: C=GB, O=Host4ge, CN=host4ge-test2/emailAddress=admin@host4ge.com
        Subject Public Key Info:
            Public Key Algorithm: rsaEncryption
                Public-Key: (4096 bit)
                Modulus:
                    00:a3:3c:a9:cf:20:f1:9a:1e:0d:a9:71:87:09:23:
                    67:4a:8b:13:dc:b5:50:6d:1f:29:c6:32:69:1a:08:
                    14:ca:3f:3d:b9:68:ba:ed:74:eb:17:84:fd:c7:c6:
                    cf:0a:33:1a:e6:be:4d:d8:d1:ed:53:d7:b9:18:62:
                    ac:02:b3:15:61:c6:82:cc:5a:a0:87:81:d6:ff:96:
                    7f:87:5a:45:0b:87:05:03:54:4c:9d:04:3c:b8:3d:
                    0f:75:2b:13:23:9d:be:79:84:e2:73:ca:8d:87:8b:
                    39:1f:99:3c:92:0a:de:c2:fd:1b:3e:7f:58:ab:c2:
                    e6:26:58:79:ef:0b:b0:ac:ff:85:05:25:48:a1:1b:
                    7b:06:de:61:fe:9d:14:9f:20:40:0f:00:8b:e0:47:
                    3a:1f:4e:4e:6f:bd:08:1c:dd:a7:36:e6:44:f9:68:
                    9d:2a:b6:55:63:52:9a:62:66:c5:a0:2e:4a:94:4f:
                    24:2b:45:11:1e:b0:c1:ad:a6:ae:4b:31:b1:a2:d5:
                    68:12:52:3a:af:c4:1e:30:31:b8:99:aa:ec:fd:3c:
                    ad:e4:cf:81:03:c8:4c:96:af:ad:47:90:b1:89:2b:
                    93:87:74:5b:e3:dd:34:c6:c8:8f:e2:c0:44:ba:25:
                    17:3d:5b:7d:48:1e:d0:9d:65:65:3a:8f:21:ee:66:
                    ac:4e:51:83:54:4b:e0:d8:e1:44:17:17:e0:46:06:
                    1e:be:36:42:2d:de:05:84:b3:68:b6:b5:db:e3:75:
                    29:0d:4c:27:44:eb:a7:8b:59:23:7f:f1:4c:b7:2b:
                    e7:83:8d:43:cb:6b:7a:a2:ba:a3:7d:27:68:ce:51:
                    43:7d:02:75:2c:56:37:8a:49:b5:ae:ab:53:cb:69:
                    30:0f:48:20:b0:ef:97:74:11:28:b4:21:2a:47:3c:
                    6f:f3:3e:60:67:5a:c3:12:d0:70:93:16:e9:d4:1d:
                    ba:9f:c7:c8:0d:81:d0:7f:63:29:b3:1f:8b:93:75:
                    50:e7:09:1d:91:d7:79:d1:72:f1:88:21:d0:b6:b1:
                    e5:eb:02:d7:14:70:a6:91:cf:36:8f:9b:df:fd:4d:
                    00:38:8e:e9:a0:42:4a:62:a4:67:6e:3b:c8:f8:3f:
                    66:8f:69:c5:ec:6d:22:3f:00:da:c3:7d:5a:8e:5d:
                    87:35:b0:b4:fb:76:53:10:86:8e:15:9b:f2:b8:92:
                    0e:1b:81:7d:97:f4:2d:49:aa:c5:45:47:bf:dd:2e:
                    95:ab:ba:56:58:de:67:2b:c7:6c:ff:2e:dc:45:3e:
                    1a:43:9d:a7:21:cb:09:55:82:13:30:a0:59:a5:b9:
                    86:98:5a:9e:c0:7b:7e:56:3e:19:da:04:9a:83:b0:
                    cc:c2:c9
                Exponent: 65537 (0x10001)
        X509v3 extensions:
            X509v3 Basic Constraints: 
                CA:FALSE
            Netscape Comment: 
                Easy-RSA Generated Certificate
            X509v3 Subject Key Identifier: 
                83:71:BF:A0:02:39:D9:A9:A5:F1:59:FF:46:6C:FF:0B:A0:7D:08:61
            X509v3 Authority Key Identifier: 
                keyid:27:DE:56:6D:B6:D3:40:6F:61:81:2D:E9:34:FA:28:08:E3:97:F8:F2
                DirName:/C=GB/O=Host4ge/CN=Host4ge CA
                serial:C6:BA:CB:6F:6C:EB:47:5C

            X509v3 Extended Key Usage: 
                TLS Web Client Authentication
            X509v3 Key Usage: 
                Digital Signature
    Signature Algorithm: sha1WithRSAEncryption
         95:49:8f:2f:0c:a7:cf:8f:e1:da:a8:ec:af:62:82:49:3a:a9:
         cd:73:1b:eb:dc:d8:3c:11:ae:bf:9f:94:34:de:a4:50:31:95:
         c0:de:6f:88:49:cb:0e:8e:1a:27:ee:4c:a6:7a:87:e5:1b:31:
         6a:b3:70:dc:8e:3b:a3:58:7a:b1:bb:45:4f:48:79:71:83:62:
         5a:48:9a:76:67:6a:38:8b:88:bc:75:71:4e:d2:c6:92:d0:6d:
         8f:e4:71:b9:14:1f:34:3f:89:4f:98:af:e5:e0:25:e7:5d:73:
         ee:70:ef:32:85:68:93:b3:0f:f9:68:f4:6c:f4:66:9e:52:75:
         bd:55:8a:4a:68:7e:cd:55:f3:8d:19:0b:91:b5:11:05:f6:2f:
         55:1d:50:ea:69:64:e1:4e:bf:19:c6:f6:c8:e8:5c:6d:ce:f7:
         6f:13:fc:b7:90:bc:67:d4:e6:9e:05:c0:16:00:10:c8:0d:e4:
         a4:34:12:ec:9e:c2:f3:8b:e3:08:3d:05:99:66:ea:2b:e8:67:
         a6:d6:6d:64:de:63:ef:ea:08:2e:ef:42:6d:d3:51:3e:55:4b:
         4c:80:11:af:56:50:8d:34:ac:1b:98:66:f0:fe:4c:52:5f:20:
         b0:6a:45:20:13:2c:d3:f0:52:27:ba:e5:37:9a:92:75:ea:0d:
         70:5d:ef:83:34:7a:1f:8a:35:fb:b7:8d:94:80:8e:64:06:51:
         ec:05:71:ea:da:cd:27:b3:a2:bd:43:97:08:cc:e3:e2:70:ba:
         05:b5:86:90:6b:c3:c5:98:51:79:03:2e:e7:3b:35:be:ac:f0:
         91:03:6c:a4:44:6a:8b:a8:95:15:75:a9:aa:db:9d:23:3e:af:
         e5:94:81:27:0b:25:61:66:65:65:2c:f0:9b:98:17:59:4c:9d:
         57:95:64:0c:98:f2:c6:85:7f:50:17:f2:23:55:5b:a8:c2:1e:
         66:bc:f4:65:eb:1a:19:7d:8e:a2:2e:8a:f7:fb:36:58:3d:04:
         4a:2e:94:8b:6e:ad:10:04:44:ab:e1:d7:47:0e:b7:74:d4:b8:
         99:a1:d3:c1:63:17:3c:3b:61:ec:b1:9f:f0:ef:35:b6:df:81:
         6f:d6:94:77:36:94:84:fd:ab:e4:c9:aa:1d:f1:14:fb:b3:45:
         04:f5:fd:9e:7f:2b:e1:0f:46:2d:32:1f:96:46:b6:ac:dc:10:
         5a:26:9f:07:e1:b0:4a:96:e2:c9:f1:54:9b:11:89:c4:07:c0:
         06:28:a7:e0:91:64:64:e7:8f:46:13:0a:dd:e5:17:ee:e4:95:
         1c:99:e8:78:89:3c:df:04:9c:98:1b:54:b9:cd:08:15:a6:bb:
         95:ee:04:9e:e0:0d:e6:45
-----BEGIN CERTIFICATE-----
MIIF7TCCA9WgAwIBAgIBAjANBgkqhkiG9w0BAQUFADA0MQswCQYDVQQGEwJHQjEQ
MA4GA1UEChMHSG9zdDRnZTETMBEGA1UEAxMKSG9zdDRnZSBDQTAeFw0xMjA0MDcw
OTQ0MDNaFw0yMjA0MDUwOTQ0MDNaMFkxCzAJBgNVBAYTAkdCMRAwDgYDVQQKEwdI
b3N0NGdlMRYwFAYDVQQDEw1ob3N0NGdlLXRlc3QyMSAwHgYJKoZIhvcNAQkBFhFh
ZG1pbkBob3N0NGdlLmNvbTCCAiIwDQYJKoZIhvcNAQEBBQADggIPADCCAgoCggIB
AKM8qc8g8ZoeDalxhwkjZ0qLE9y1UG0fKcYyaRoIFMo/Pblouu106xeE/cfGzwoz
Gua+TdjR7VPXuRhirAKzFWHGgsxaoIeB1v+Wf4daRQuHBQNUTJ0EPLg9D3UrEyOd
vnmE4nPKjYeLOR+ZPJIK3sL9Gz5/WKvC5iZYee8LsKz/hQUlSKEbewbeYf6dFJ8g
QA8Ai+BHOh9OTm+9CBzdpzbmRPlonSq2VWNSmmJmxaAuSpRPJCtFER6wwa2mrksx
saLVaBJSOq/EHjAxuJmq7P08reTPgQPITJavrUeQsYkrk4d0W+PdNMbIj+LARLol
Fz1bfUge0J1lZTqPIe5mrE5Rg1RL4NjhRBcX4EYGHr42Qi3eBYSzaLa12+N1KQ1M
J0Trp4tZI3/xTLcr54ONQ8treqK6o30naM5RQ30CdSxWN4pJta6rU8tpMA9IILDv
l3QRKLQhKkc8b/M+YGdawxLQcJMW6dQdup/HyA2B0H9jKbMfi5N1UOcJHZHXedFy
8Ygh0Lax5esC1xRwppHPNo+b3/1NADiO6aBCSmKkZ247yPg/Zo9pxextIj8A2sN9
Wo5dhzWwtPt2UxCGjhWb8riSDhuBfZf0LUmqxUVHv90ulau6VljeZyvHbP8u3EU+
GkOdpyHLCVWCEzCgWaW5hphansB7flY+GdoEmoOwzMLJAgMBAAGjgeQwgeEwCQYD
VR0TBAIwADAtBglghkgBhvhCAQ0EIBYeRWFzeS1SU0EgR2VuZXJhdGVkIENlcnRp
ZmljYXRlMB0GA1UdDgQWBBSDcb+gAjnZqaXxWf9GbP8LoH0IYTBkBgNVHSMEXTBb
gBQn3lZtttNAb2GBLek0+igI45f48qE4pDYwNDELMAkGA1UEBhMCR0IxEDAOBgNV
BAoTB0hvc3Q0Z2UxEzARBgNVBAMTCkhvc3Q0Z2UgQ0GCCQDGustvbOtHXDATBgNV
HSUEDDAKBggrBgEFBQcDAjALBgNVHQ8EBAMCB4AwDQYJKoZIhvcNAQEFBQADggIB
AJVJjy8Mp8+P4dqo7K9igkk6qc1zG+vc2DwRrr+flDTepFAxlcDeb4hJyw6OGifu
TKZ6h+UbMWqzcNyOO6NYerG7RU9IeXGDYlpImnZnajiLiLx1cU7SxpLQbY/kcbkU
HzQ/iU+Yr+XgJeddc+5w7zKFaJOzD/lo9Gz0Zp5Sdb1Vikpofs1V840ZC5G1EQX2
L1UdUOppZOFOvxnG9sjoXG3O928T/LeQvGfU5p4FwBYAEMgN5KQ0EuyewvOL4wg9
BZlm6ivoZ6bWbWTeY+/qCC7vQm3TUT5VS0yAEa9WUI00rBuYZvD+TFJfILBqRSAT
LNPwUie65TeaknXqDXBd74M0eh+KNfu3jZSAjmQGUewFcerazSezor1DlwjM4+Jw
ugW1hpBrw8WYUXkDLuc7Nb6s8JEDbKREaouolRV1qarbnSM+r+WUgScLJWFmZWUs
8JuYF1lMnVeVZAyY8saFf1AX8iNVW6jCHma89GXrGhl9jqIuivf7Nlg9BEoulItu
rRAERKvh10cOt3TUuJmh08FjFzw7Yeyxn/DvNbbfgW/WlHc2lIT9q+TJqh3xFPuz
RQT1/Z5/K+EPRi0yH5ZGtqzcEFomnwfhsEqW4snxVJsRicQHwAYop+CRZGTnj0YT
Ct3lF+7klRyZ6HiJPN8EnJgbVLnNCBWmu5XuBJ7gDeZF
-----END CERTIFICATE-----
