Certificate:
    Data:
        Version: 3 (0x2)
        Serial Number: 3 (0x3)
    Signature Algorithm: sha1WithRSAEncryption
        Issuer: C=GB, O=Host4ge, CN=Host4ge CA/name=Host4ge CA
        Validity
            Not Before: Aug  9 22:49:24 2012 GMT
            Not After : Aug  7 22:49:24 2022 GMT
        Subject: C=GB, O=Host4ge, CN=vm12/emailAddress=admin@host4ge.com
        Subject Public Key Info:
            Public Key Algorithm: rsaEncryption
                Public-Key: (4096 bit)
                Modulus:
                    00:ea:8b:7c:17:8c:da:db:e9:a5:8c:8c:3f:52:1d:
                    e4:5c:df:21:74:02:68:21:9a:80:72:ad:b5:f9:4e:
                    f8:bc:7b:17:02:01:73:dd:26:3a:50:61:9c:76:e2:
                    ae:11:0a:c1:84:d7:4d:40:9e:07:95:26:bc:c9:b9:
                    ff:99:8c:c8:f7:09:de:63:59:bd:bd:c6:e1:64:9f:
                    8a:65:6a:0b:04:8a:06:01:31:49:8f:43:1b:39:92:
                    5a:68:aa:18:e6:a4:c6:46:bc:b1:05:0d:31:e3:00:
                    f8:57:33:e0:4e:d9:c2:ed:42:52:a6:84:0b:d2:ac:
                    40:d6:87:4e:ac:b9:12:78:28:97:6b:ec:a6:77:73:
                    2f:6c:df:32:af:82:4c:1e:d4:d5:a0:e7:41:5f:2d:
                    34:60:a5:74:8f:b6:98:1d:b7:ff:02:73:b1:2e:6f:
                    3f:fe:3b:1d:eb:63:07:f9:5d:95:23:65:8f:e3:2f:
                    0d:68:0f:5b:91:3f:20:a5:15:05:d0:fe:f9:46:45:
                    62:06:c2:bb:4d:1e:7b:11:d5:6f:17:18:66:82:70:
                    f6:b9:70:ad:a4:55:89:de:05:ea:ac:c9:3f:4d:bd:
                    85:0c:ef:74:8d:3a:ea:a2:c0:32:7f:94:6c:f7:1a:
                    9f:87:13:22:26:10:b2:7e:99:ef:41:10:b1:99:11:
                    6c:d8:7f:f4:5d:b3:d2:84:f7:d8:60:24:cd:ad:f3:
                    32:a4:dd:b8:f2:05:60:43:ac:c4:65:ea:bb:c2:9a:
                    28:44:21:5e:63:2e:cb:de:f0:c8:e7:99:77:78:e4:
                    e1:e6:08:ef:03:c5:be:8c:a1:e7:af:82:92:7c:03:
                    aa:8a:68:b2:78:31:31:c4:e9:66:cc:20:a3:57:ff:
                    3a:61:7f:b2:5d:d4:dd:ed:f9:a7:d1:5b:df:d9:c4:
                    8a:6e:a0:63:39:50:04:a8:7e:a8:53:11:21:89:e3:
                    e5:2f:48:0a:21:4a:bc:56:e5:1b:be:33:87:fb:b6:
                    44:3a:ca:c5:e2:8c:ee:fa:fc:fc:3f:d8:4a:f7:5d:
                    d6:47:58:14:e0:0d:d8:a9:41:eb:d5:e4:92:a4:45:
                    19:03:dd:1c:e8:2a:2e:04:6c:65:64:fc:e8:99:25:
                    2f:80:2e:f1:21:53:44:07:3f:28:1c:30:27:5a:f7:
                    44:10:fb:b8:6a:03:dd:71:77:1d:ee:91:a2:2b:aa:
                    72:30:db:a1:42:10:32:49:0a:98:d2:d6:39:d6:d0:
                    a5:e8:b1:70:da:55:05:8a:6e:f6:5d:de:77:d3:9b:
                    c0:cb:f9:60:26:1e:c9:55:1a:0a:fb:3a:aa:1b:bd:
                    2d:08:19:43:dd:59:f9:b3:80:48:63:18:bf:0b:87:
                    55:f5:29
                Exponent: 65537 (0x10001)
        X509v3 extensions:
            X509v3 Basic Constraints: 
                CA:FALSE
            Netscape Comment: 
                Easy-RSA Generated Certificate
            X509v3 Subject Key Identifier: 
                A0:88:35:3B:95:94:2A:EA:CE:C1:AD:E4:64:50:46:C1:17:F7:5C:44
            X509v3 Authority Key Identifier: 
                keyid:20:C4:E4:A1:2D:B7:EE:9B:E2:C5:C8:EF:0C:43:AD:AA:D7:DF:7A:6F
                DirName:/C=GB/O=Host4ge/CN=Host4ge CA/name=Host4ge CA
                serial:81:7E:9D:E0:4B:B2:EF:AA

            X509v3 Extended Key Usage: 
                TLS Web Client Authentication
            X509v3 Key Usage: 
                Digital Signature
    Signature Algorithm: sha1WithRSAEncryption
         29:62:78:05:d1:3f:47:4b:fb:08:e6:3d:ea:f6:15:8f:7d:9a:
         ec:a3:c8:0c:b9:03:7b:98:b1:dd:44:c0:f6:8a:4c:7c:96:e7:
         04:05:e1:cb:1d:f6:b8:46:ce:e7:1f:e6:2a:e2:a1:92:4f:3f:
         66:6f:23:df:8f:5f:eb:57:7f:68:28:99:2d:d3:69:22:c7:78:
         e6:5e:15:ae:dc:dd:b5:a5:2c:45:4b:71:df:95:2a:a5:89:b9:
         6f:f0:f5:9c:8e:42:1a:7a:be:9c:ad:a3:7d:ae:61:83:1d:8a:
         8e:97:2f:8c:08:38:79:d4:ec:3b:ef:14:08:cd:93:8b:6a:22:
         c8:80:c7:fa:08:69:69:fd:29:75:cc:97:a6:68:fb:a4:72:4d:
         51:9e:9a:ac:30:d5:b0:4a:df:e8:c7:22:5b:7e:e5:56:92:41:
         e6:49:f2:20:6e:26:32:9c:a0:cc:70:c9:d6:fa:92:d2:c4:dc:
         2d:4c:dd:26:d5:3f:66:8d:42:49:ae:4d:1b:77:1a:11:82:f7:
         da:7c:18:39:e3:39:e3:f1:5a:c2:d7:70:17:12:f0:a3:5a:9a:
         f5:14:0c:3d:16:9e:a1:f7:ac:6c:b6:ca:d3:7a:55:b3:85:36:
         81:28:d2:2a:6c:9e:e7:e8:20:0a:60:72:b7:5d:60:b7:8c:6f:
         42:da:35:d2:af:41:12:29:e8:3e:23:15:19:73:2b:d3:e8:fa:
         e8:4d:1a:91:3d:57:72:58:54:be:50:5c:ad:87:bd:de:b5:ba:
         0b:fe:06:e0:5d:5e:54:14:0f:5a:62:06:d7:b9:fb:12:8a:4b:
         82:85:01:eb:b2:a7:ca:1f:a6:a1:5e:ea:46:a0:9d:05:c6:98:
         15:1b:f4:69:85:68:b3:c1:9d:55:3c:08:9c:8d:16:e1:4b:4e:
         60:72:3a:5c:bd:ea:19:e0:aa:ef:93:15:88:cc:e1:8b:02:5c:
         52:47:38:df:57:ae:a4:b8:ff:f7:f5:31:4d:13:a4:c2:26:7e:
         63:6c:25:c5:b3:28:ff:8b:e8:80:0f:77:c2:03:74:4a:9f:f3:
         47:be:c6:b5:17:01:6e:5b:8e:3e:44:93:ea:68:45:53:d0:c0:
         69:79:1d:d1:8a:44:f6:26:85:33:39:7e:08:d4:ce:41:d4:f9:
         c0:90:5d:99:8d:1a:d9:55:d4:49:a7:1b:28:8f:3d:76:a9:76:
         0c:03:a1:1a:4b:ec:4a:2a:f9:23:af:9b:2c:c8:e5:f2:85:63:
         97:fc:57:16:ac:21:15:6e:ac:c9:b3:12:d5:09:8b:01:b9:df:
         cc:e0:c5:4f:45:6c:37:ab:31:05:e1:de:9d:81:6f:6d:38:ba:
         f9:76:81:3e:d8:63:75:7b
-----BEGIN CERTIFICATE-----
MIIGDjCCA/agAwIBAgIBAzANBgkqhkiG9w0BAQUFADBJMQswCQYDVQQGEwJHQjEQ
MA4GA1UEChMHSG9zdDRnZTETMBEGA1UEAxMKSG9zdDRnZSBDQTETMBEGA1UEKRMK
SG9zdDRnZSBDQTAeFw0xMjA4MDkyMjQ5MjRaFw0yMjA4MDcyMjQ5MjRaMFAxCzAJ
BgNVBAYTAkdCMRAwDgYDVQQKEwdIb3N0NGdlMQ0wCwYDVQQDEwR2bTEyMSAwHgYJ
KoZIhvcNAQkBFhFhZG1pbkBob3N0NGdlLmNvbTCCAiIwDQYJKoZIhvcNAQEBBQAD
ggIPADCCAgoCggIBAOqLfBeM2tvppYyMP1Id5FzfIXQCaCGagHKttflO+Lx7FwIB
c90mOlBhnHbirhEKwYTXTUCeB5UmvMm5/5mMyPcJ3mNZvb3G4WSfimVqCwSKBgEx
SY9DGzmSWmiqGOakxka8sQUNMeMA+Fcz4E7Zwu1CUqaEC9KsQNaHTqy5Engol2vs
pndzL2zfMq+CTB7U1aDnQV8tNGCldI+2mB23/wJzsS5vP/47HetjB/ldlSNlj+Mv
DWgPW5E/IKUVBdD++UZFYgbCu00eexHVbxcYZoJw9rlwraRVid4F6qzJP029hQzv
dI066qLAMn+UbPcan4cTIiYQsn6Z70EQsZkRbNh/9F2z0oT32GAkza3zMqTduPIF
YEOsxGXqu8KaKEQhXmMuy97wyOeZd3jk4eYI7wPFvoyh56+CknwDqoposngxMcTp
Zswgo1f/OmF/sl3U3e35p9Fb39nEim6gYzlQBKh+qFMRIYnj5S9ICiFKvFblG74z
h/u2RDrKxeKM7vr8/D/YSvdd1kdYFOAN2KlB69XkkqRFGQPdHOgqLgRsZWT86Jkl
L4Au8SFTRAc/KBwwJ1r3RBD7uGoD3XF3He6RoiuqcjDboUIQMkkKmNLWOdbQpeix
cNpVBYpu9l3ed9ObwMv5YCYeyVUaCvs6qhu9LQgZQ91Z+bOASGMYvwuHVfUpAgMB
AAGjgfkwgfYwCQYDVR0TBAIwADAtBglghkgBhvhCAQ0EIBYeRWFzeS1SU0EgR2Vu
ZXJhdGVkIENlcnRpZmljYXRlMB0GA1UdDgQWBBSgiDU7lZQq6s7BreRkUEbBF/dc
RDB5BgNVHSMEcjBwgBQgxOShLbfum+LFyO8MQ62q1996b6FNpEswSTELMAkGA1UE
BhMCR0IxEDAOBgNVBAoTB0hvc3Q0Z2UxEzARBgNVBAMTCkhvc3Q0Z2UgQ0ExEzAR
BgNVBCkTCkhvc3Q0Z2UgQ0GCCQCBfp3gS7LvqjATBgNVHSUEDDAKBggrBgEFBQcD
AjALBgNVHQ8EBAMCB4AwDQYJKoZIhvcNAQEFBQADggIBAClieAXRP0dL+wjmPer2
FY99muyjyAy5A3uYsd1EwPaKTHyW5wQF4csd9rhGzucf5irioZJPP2ZvI9+PX+tX
f2gomS3TaSLHeOZeFa7c3bWlLEVLcd+VKqWJuW/w9ZyOQhp6vpyto32uYYMdio6X
L4wIOHnU7DvvFAjNk4tqIsiAx/oIaWn9KXXMl6Zo+6RyTVGemqww1bBK3+jHIlt+
5VaSQeZJ8iBuJjKcoMxwydb6ktLE3C1M3SbVP2aNQkmuTRt3GhGC99p8GDnjOePx
WsLXcBcS8KNamvUUDD0WnqH3rGy2ytN6VbOFNoEo0ipsnufoIApgcrddYLeMb0La
NdKvQRIp6D4jFRlzK9Po+uhNGpE9V3JYVL5QXK2Hvd61ugv+BuBdXlQUD1piBte5
+xKKS4KFAeuyp8ofpqFe6kagnQXGmBUb9GmFaLPBnVU8CJyNFuFLTmByOly96hng
qu+TFYjM4YsCXFJHON9XrqS4//f1MU0TpMImfmNsJcWzKP+L6IAPd8IDdEqf80e+
xrUXAW5bjj5Ek+poRVPQwGl5HdGKRPYmhTM5fgjUzkHU+cCQXZmNGtlV1EmnGyiP
PXapdgwDoRpL7Eoq+SOvmyzI5fKFY5f8VxasIRVurMmzEtUJiwG538zgxU9FbDer
MQXh3p2Bb204uvl2gT7YY3V7
-----END CERTIFICATE-----
